(lp0
(lp1
S'Dishwasher'
p2
aS'Ireland'
p3
aF0.0018876995525846042
aF0.19418137288549867
aF70.02877738835225
acnumpy.core.multiarray
scalar
p4
(cnumpy
dtype
p5
(S'f8'
p6
I0
I1
tp7
Rp8
(I3
S'<'
p9
NNNI-1
I-1
I0
tp10
bS'\x84\x14\x98\x99\x07\xc5\xed?'
p11
tp12
Rp13
aa(lp14
S'Vacuum_Cleaner'
p15
aS'Brazil'
p16
aF0.003601777895958407
aF0.14246867127104232
aF49.597974392518516
ag4
(g8
S'\xf6`\xf8\x1a\xe8w\xed?'
p17
tp18
Rp19
aa(lp20
g15
aS'Latin America'
p21
aF0.0031878510811822955
aF0.13691883581608214
aF46.314964957267385
ag4
(g8
S'\x9f\xa7\xc6\r}\xd4\xee?'
p22
tp23
Rp24
aa(lp25
g15
aS'Uruguay'
p26
aF0.0033419872416254356
aF0.20387589166497477
aF31.138092160982847
ag4
(g8
S'\xd2\xb5\xec\xa1N6\xee?'
p27
tp28
Rp29
aa(lp30
S'Tumble_Drier'
p31
aS'Saudi Arabia'
p32
aF0.007563964927577466
aF0.15062923985787893
aF46.45076413836046
ag4
(g8
S'^\xc3\x8a\xec\xf1M\xef?'
p33
tp34
Rp35
aa(lp36
S'Air_conditioner'
p37
aS'Bahrain'
p38
aF0.007330483803365682
aF0.17174735181939943
aF88.16705157821752
ag4
(g8
S'\xfa\xe5\x86U\xedb\xee?'
p39
tp40
Rp41
aa(lp42
g37
aS'United Arab Emirates'
p43
aF0.008679115428430799
aF0.16316692229534677
aF97.49727811930008
ag4
(g8
S'\x98\x90\x12\xe1\xd1\x8b\xee?'
p44
tp45
Rp46
aa(lp47
g37
aS'Qatar'
p48
aF0.008202612603483503
aF0.1545165603843212
aF95.54670595087408
ag4
(g8
S'\xe5U\xeaE\xd7\xc2\xed?'
p49
tp50
Rp51
aa(lp52
g37
aS'Saudi Arabia'
p53
aF0.014426061111531035
aF0.12680104234306527
aF88.49117352461717
ag4
(g8
S'q\x15\x99Z\x9c\xb8\xed?'
p54
tp55
Rp56
aa(lp57
S'Color_TV'
p58
aS'Turkey'
p59
aF0.010281162152422028
aF0.26957859534407086
aF91.13632424009195
ag4
(g8
S'\x8e6)\xffX\xcc\xed?'
p60
tp61
Rp62
aa(lp63
g58
aS'Turkmenistan'
p64
aF0.0026149266284751756
aF0.2739026504141655
aF80.87333526148844
ag4
(g8
S'Y\xdcg"\xa9N\xef?'
p65
tp66
Rp67
aa(lp68
g58
aS'Algeria'
p69
aF0.0008231720725689012
aF0.3456667041250441
aF100.7569040463417
ag4
(g8
S"\xd6[\xe5'\x08\xc1\xed?"
p70
tp71
Rp72
aa(lp73
g58
aS'Eastern Europe'
p74
aF0.015712266740969573
aF0.145785459542535
aF96.65054300224513
ag4
(g8
S'\xc1*6\xe6!\xae\xee?'
p75
tp76
Rp77
aa(lp78
g58
aS'Kazakhstan'
p79
aF0.002312659689349806
aF0.2791020481212062
aF97.84298407679012
ag4
(g8
S'\r\xe6\xf9\xf8\x1bT\xef?'
p80
tp81
Rp82
aa(lp83
g58
aS'Azerbaijan'
p84
aF0.0007177445652552312
aF0.2480724314040966
aF110.98618142638665
ag4
(g8
S'7SV\xb6hY\xe7?'
p85
tp86
Rp87
aa(lp88
g58
aS'Uzbekistan'
p89
aF0.002241456744443824
aF0.27258643099117075
aF85.18694787705617
ag4
(g8
S'\x9d\x80\x0e2\xfch\xef?'
p90
tp91
Rp92
aa(lp93
g58
aS'Malaysia'
p94
aF0.008048612449631239
aF0.22204119858875293
aF101.35479063267225
ag4
(g8
S'A\xbb\xff\x9e\xac3\xef?'
p95
tp96
Rp97
aa(lp98
g58
aS'Jordan'
p99
aF0.006640818224103233
aF0.18746285412918526
aF99.88404840418191
ag4
(g8
S'\x82\xb8F\xcc\xe7g\xec?'
p100
tp101
Rp102
aa(lp103
g58
aS'Chile'
p104
aF0.009244864342503956
aF0.21342735097806612
aF95.96508486769397
ag4
(g8
S'3g\x15S*H\xee?'
p105
tp106
Rp107
aa(lp108
g58
aS'Thailand'
p109
aF0.006062309974090111
aF0.24371044134252545
aF95.95224034972098
ag4
(g8
S'r\x8d\x0ciY \xef?'
p110
tp111
Rp112
aa(lp113
g58
aS'Argentina'
p114
aF0.0095992969199908
aF0.27301424125802587
aF94.77834896635032
ag4
(g8
S'\x99\x1e\xbeh\x01\xc5\xee?'
p115
tp116
Rp117
aa(lp118
g58
aS'Venezuela'
p119
aF0.0065508996384700474
aF0.2394059474858635
aF93.44516098070159
ag4
(g8
S'\xbeq\xad~@\x89\xed?'
p120
tp121
Rp122
aa(lp123
g58
aS'Russia'
p124
aF0.013966423790694094
aF0.14488839761506808
aF98.79516111224873
ag4
(g8
S'=\xf9c\xc7p\xcc\xed?'
p125
tp126
Rp127
aa(lp128
g58
aS'Latin America'
p129
aF0.008027643815443169
aF0.22074248585662318
aF92.60173378230384
ag4
(g8
S'\x85s{FN\xf8\xec?'
p130
tp131
Rp132
aa(lp133
S'Sattelite_TV'
p134
aS'G7'
p135
aF0.01109256953250415
aF0.16523858078511594
aF117739.95850344012
ag4
(g8
S'\xc2\x16v\x8d\xf1\xc1\xe3?'
p136
tp137
Rp138
aa(lp139
g134
aS'Australia'
p140
aF0.021506838910792147
aF0.11343514873208704
aF3946.174500720312
ag4
(g8
S'Wn\x87\x9f-\x17\xc0?'
p141
tp142
Rp143
aa(lp144
g134
aS'Iran'
p145
aF0.0030304170616726697
aF0.2367822032240107
aF9336.833491224628
ag4
(g8
S'\xc0c\xb6,\xe4`\xed?'
p146
tp147
Rp148
aa(lp149
g134
aS'South Africa'
p150
aF0.0005818105472716722
aF0.2840952531170275
aF9800.129093462758
ag4
(g8
S'\xde\xe09\x85+R\xec?'
p151
tp152
Rp153
aa(lp154
g134
aS'Eastern Europe'
p155
aF0.0008848866430582065
aF0.3277252567510761
aF43399.30401976346
ag4
(g8
S'\x90\xa8\x8c\x1d\x07\xfe\xe3?'
p156
tp157
Rp158
aa(lp159
g134
aS'EU'
p160
aF0.01806484367979538
aF0.08984451149884343
aF98903.48940230187
ag4
(g8
S'\xbc\x8c@\xf7\x81\xdf\xce?'
p161
tp162
Rp163
aa(lp164
g134
aS'G8'
p165
aF0.012297025750125841
aF0.12484889889601868
aF151551.3424155182
ag4
(g8
S'\xa2\xe3\nW}\x02\xe0?'
p166
tp167
Rp168
aa(lp169
g134
aS'Uzbekistan'
p170
aF0.0034374445211386947
aF0.34339128268929775
aF906.9628119688608
ag4
(g8
S'\xb4\x06o\xe6\xe2+\xe7?'
p171
tp172
Rp173
aa(lp174
g134
aS'Australasia'
p175
aF0.018366855412153237
aF0.15777603358373873
aF4605.491263681426
ag4
(g8
S'\xa6\xceW\x89_]\xd4?'
p176
tp177
Rp178
aa(lp179
g134
aS'Guatemala'
p180
aF0.009574747543035736
aF0.2861320429839388
aF153.8231573393198
ag4
(g8
S'0\x80\x8d4\xcb\xcb\xe9?'
p181
tp182
Rp183
aa(lp184
g134
aS'Belarus'
p185
aF0.011664269658726698
aF0.304356570625889
aF574.3164502146118
ag4
(g8
S';\x08\xb8/Y\xee\xec?'
p186
tp187
Rp188
aa(lp189
g134
aS'Mercosur'
p190
aF0.00043834006128987325
aF0.354428506549791
aF29471.0993760425
ag4
(g8
S'\xc0\x1d\xb8A\xba\x1b\xeb?'
p191
tp192
Rp193
aa(lp194
g134
aS'Kenya'
p195
aF0.016636019851512602
aF0.26461771924648564
aF188.65331743655494
ag4
(g8
S'v\xa1\xe7\x16g\xe5\xee?'
p196
tp197
Rp198
aa(lp199
g134
aS'BRIC'
p200
aF0.0007400041066874107
aF0.38210109204572024
aF176685.92703667012
ag4
(g8
S'\xf2M\xd0\xed|\xf1\xe7?'
p201
tp202
Rp203
aa(lp204
g134
aS'Thailand'
p205
aF0.00530658431060835
aF0.2104258071309298
aF1296.8567913640557
ag4
(g8
S'\x91\x9a<\xbaA\xd5\xe8?'
p206
tp207
Rp208
aa(lp209
g134
aS'Argentina'
p210
aF0.014283525936186257
aF0.18277446355972327
aF2584.350456462891
ag4
(g8
S'\tG\xf5\x0br\x10\xe4?'
p211
tp212
Rp213
aa(lp214
g134
aS'Kazakhstan'
p215
aF0.0036305250246790985
aF0.3437256356617571
aF319.81823900479515
ag4
(g8
S'IM\xba\x8e\x81u\xe5?'
p216
tp217
Rp218
aa(lp219
S'Freezer'
p220
aS'Bulgaria'
p221
aF0.00124155641283133
aF0.26053575843488974
aF31.664102701358903
ag4
(g8
S'\xdfs(\x91\xfa\xae\xec?'
p222
tp223
Rp224
aa(lp225
S'Mobile_Telephone'
p226
aS'Uzbekistan - % of households'
p227
aF0.007225067728568595
aF0.3729720066249171
aF63.28350772460195
ag4
(g8
S'y\x17\x19\xfa{\x82\xec?'
p228
tp229
Rp230
aa(lp231
g226
aS'United Arab Emirates - % of households'
p232
aF0.02447699851250702
aF0.21397057444248496
aF100.85646733206737
ag4
(g8
S'\x8am>jK\xbc\xee?'
p233
tp234
Rp235
aa(lp236
g226
aS'Tunisia - % of households'
p237
aF0.005410875625626127
aF0.5063488881856453
aF93.24108206174456
ag4
(g8
S"\x93\x01\x94\xef'\x12\xeb?"
p238
tp239
Rp240
aa(lp241
g226
aS'Hungary - % of households'
p242
aF0.0035087228097354633
aF0.596508285870884
aF99.99001264714104
ag4
(g8
S'\xce*\xe5\x14\xae\x87\xea?'
p243
tp244
Rp245
aa(lp246
g226
aS'Qatar - % of households'
p247
aF0.007964529919516204
aF0.2882259937157578
aF101.3641061373645
ag4
(g8
S'z\x05C\x91\x0f\xdb\xee?'
p248
tp249
Rp250
aa(lp251
g226
aS'North America - % of households'
p252
aF0.00496708796515098
aF0.28498127145792473
aF95.88059254708173
ag4
(g8
S'-\x16\xd8\x08\xcc \xea?'
p253
tp254
Rp255
aa(lp256
g226
aS'Russia - % of households'
p257
aF0.005251231321156438
aF0.36533048940429375
aF101.834399379263
ag4
(g8
S'.ZO\xd3\x89\xfe\xed?'
p258
tp259
Rp260
aa(lp261
g226
aS'Kuwait - % of households'
p262
aF0.005702958793562744
aF0.4357203722846115
aF98.12904047199757
ag4
(g8
S'\xd9\x8d]\xc2\x81\xb3\xef?'
p263
tp264
Rp265
aa(lp266
g226
aS'India - % of households'
p267
aF0.01258031731246587
aF0.3802000201398454
aF81.08040657291899
ag4
(g8
S'4\nBE\x19\xf5\xec?'
p268
tp269
Rp270
aa(lp271
g226
aS'Middle East and Africa - % of households'
p272
aF0.0011258691628544403
aF0.3323940981437646
aF96.84371102682645
ag4
(g8
S'y\xae\x10\xc0\xf5\x18\xed?'
p273
tp274
Rp275
aa(lp276
g226
aS'Canada - % of households'
p277
aF0.006914319548389357
aF0.2709617463521136
aF88.10180936424358
ag4
(g8
S'\x0b\xbd\x9c\xc9\x8a\xf6\xe4?'
p278
tp279
Rp280
aa(lp281
g226
aS'Kenya - % of households'
p282
aF0.003441201541908607
aF0.615964562203986
aF69.60087147084057
ag4
(g8
S'\x12&M\xa5%\t\xed?'
p283
tp284
Rp285
aa(lp286
g226
aS'Philippines - % of households'
p287
aF0.018452461456559623
aF0.2777686411880543
aF93.75440845128011
ag4
(g8
S'q\\\xcd\x84\xb5\x94\xe5?'
p288
tp289
Rp290
aa(lp291
g226
aS'Saudi Arabia - % of households'
p292
aF0.0174781919758393
aF0.30531742425093283
aF97.17761179314364
ag4
(g8
S'\xac1.a\x98\x1a\xef?'
p293
tp294
Rp295
aa(lp296
g226
aS'Romania - % of households'
p297
aF0.0025350126739788863
aF0.5550487939054867
aF90.22405671916758
ag4
(g8
S'\xf4;\xb4\xdf7\x07\xee?'
p298
tp299
Rp300
aa(lp301
g226
aS'Vietnam - % of households'
p302
aF0.001694763135880398
aF0.5020381595767514
aF90.59567352606645
ag4
(g8
S'\xf18\x1f\x1f\x18e\xee?'
p303
tp304
Rp305
aa(lp306
g226
aS'Bosnia-Herzegovina - % of households'
p307
aF0.0012127040219522976
aF0.3612691946724376
aF89.41845811750709
ag4
(g8
S'\xebG\x0c\xbb\xf8\x93\xec?'
p308
tp309
Rp310
aa(lp311
g226
aS'Montenegro - % of households'
p312
aF0.0013329759108200044
aF0.4539967458421685
aF99.99247644821041
ag4
(g8
S'\x0bX\xaaY\x95b\xe7?'
p313
tp314
Rp315
aa(lp316
g226
aS'Western Europe - % of households'
p317
aF0.005803891820973276
aF0.4884653980787136
aF92.41830293332607
ag4
(g8
S'\xf2\x00\xa9rs\xb8\xec?'
p318
tp319
Rp320
aa(lp321
g226
aS'Croatia - % of households'
p322
aF0.0007189002016925265
aF0.4369374206804407
aF99.4213504996727
ag4
(g8
S'\x97Cb[\x05\xb6\xed?'
p323
tp324
Rp325
aa(lp326
g226
aS'Estonia - % of households'
p327
aF0.010133293499772718
aF0.4078758768450699
aF97.35397142189898
ag4
(g8
S'\xf6\x10\x06\xab\xde\xd1\xec?'
p328
tp329
Rp330
aa(lp331
g226
aS'Australasia - % of households'
p332
aF0.013973280345509334
aF0.33663250805296374
aF94.65543174147095
ag4
(g8
S'(\x9e*\xf2\x89\xe5\xec?'
p333
tp334
Rp335
aa(lp336
g226
aS'Kazakhstan - % of households'
p337
aF0.01241861871276235
aF0.5071113592081106
aF90.0670295237512
ag4
(g8
S'\x99\x11\xd0\xb36\xac\xee?'
p338
tp339
Rp340
aa(lp341
g226
aS'Latvia - % of households'
p342
aF0.010176941634607261
aF0.6534285915088375
aF100.64809569114188
ag4
(g8
S'W\xc0\xdd\x9cu\xde\xd8?'
p343
tp344
Rp345
aa(lp346
g226
aS'Malaysia - % of households'
p347
aF0.0029752892990366365
aF0.2943109152590327
aF104.95311477996512
ag4
(g8
S'fN+J\xdd\x0c\xea?'
p348
tp349
Rp350
aa(lp351
g226
aS'Australia - % of households'
p352
aF0.016002323690757433
aF0.3246069037918268
aF94.7452584019625
ag4
(g8
S'\xd7\x916\xc56\x85\xec?'
p353
tp354
Rp355
aa(lp356
g226
aS'Azerbaijan - % of households'
p357
aF0.02221570919545448
aF0.4629957921573804
aF100.095263377266
ag4
(g8
S'\xfb\r\x9d\xb003\xea?'
p358
tp359
Rp360
aa(lp361
g226
aS'Belgium - % of households'
p362
aF0.0006897104500778158
aF0.7115429463777082
aF98.80749679901912
ag4
(g8
S'`~\xcc\xc26Q\xec?'
p363
tp364
Rp365
aa(lp366
S'Hi-Fi_Stereo'
p367
aS'Brazil'
p368
aF0.0057240303379674975
aF0.24856086277803963
aF53.90806331871235
ag4
(g8
S'\x16\xa06p\x0c\xe7\xed?'
p369
tp370
Rp371
aa(lp372
g367
aS'Hungary'
p373
aF0.002410532557284143
aF0.221976419019062
aF35.17749138913863
ag4
(g8
S'H\xc3\x9c\x1b|j\xe7?'
p374
tp375
Rp376
aa(lp377
g367
aS'Saudi Arabia'
p378
aF0.004778601194510194
aF0.17374354418197338
aF45.788686316593214
ag4
(g8
S'\x89\x1fq_\x1d\xda\xef?'
p379
tp380
Rp381
aa(lp382
g367
aS'Montenegro'
p383
aF0.0022154966878973627
aF0.19883600127951914
aF36.1329984251477
ag4
(g8
S'\xfen\x17SKN\xea?'
p384
tp385
Rp386
aa(lp387
g367
aS'Chile'
p388
aF0.005283568230688969
aF0.22258580684822685
aF75.55575538460462
ag4
(g8
S'\xb1\xd7\x9e\x04\x811\xef?'
p389
tp390
Rp391
aa(lp392
S'Video_Camera'
p393
aS'United Arab Emirates'
p394
aF0.030891551415856415
aF0.15899367848336973
aF53.16191574820411
ag4
(g8
S'\xa3y@\xe9":\xeb?'
p395
tp396
Rp397
aa(lp398
g393
aS'Saudi Arabia'
p399
aF0.02234179883077255
aF0.1644645181367817
aF50.69287968377143
ag4
(g8
S'\xda\xc57\x9d\x98\xd3\xe7?'
p400
tp401
Rp402
aa(lp403
g393
aS'Israel'
p404
aF0.006434840735763891
aF0.1768786962224711
aF31.81752691886986
ag4
(g8
S'\xe0\xfey\xd5\x0b-\xeb?'
p405
tp406
Rp407
aa(lp408
S'Washing_Machine'
p409
aS'Argentina'
p410
aF0.0010643459238327655
aF0.24943120957205794
aF97.30996656516382
ag4
(g8
S'\x9f\x83\x1a6\x14@\xe5?'
p411
tp412
Rp413
aa(lp414
g409
aS'Venezuela'
p415
aF0.01305338404631232
aF0.15510735637185485
aF72.26683160321093
ag4
(g8
S'\x89\x05\xfe-\xc6\xe1\xe3?'
p416
tp417
Rp418
aa(lp419
g409
aS'Costa Rica'
p420
aF0.001463817233396579
aF0.2962524155436109
aF98.2760359162454
ag4
(g8
S'\xfft\xce\xc7\xe4\x08\xe5?'
p421
tp422
Rp423
aa(lp424
g409
aS'Chile'
p425
aF0.0012967880878716385
aF0.2161253059959312
aF89.11853098562284
ag4
(g8
S'\xbcH{\xbf\xeb\xb3\xc9?'
p426
tp427
Rp428
aa(lp429
S'DVD_Player'
p430
aS'USA'
p431
aF0.004816529866431173
aF0.5385801198997118
aF97.88852236313532
ag4
(g8
S'\xeb(\n\xa7\x04c\xee?'
p432
tp433
Rp434
aa(lp435
g430
aS'Singapore'
p436
aF0.015728581412076517
aF0.3542249900192726
aF65.96114854367532
ag4
(g8
S'\x04\xfe\x87\x80\xf1n\xee?'
p437
tp438
Rp439
aa(lp440
g430
aS'United Arab Emirates'
p441
aF0.003072970253187814
aF0.4895279462627766
aF88.56372831675485
ag4
(g8
S'\x1b\x15\t\xc5\xd5\x17\xed?'
p442
tp443
Rp444
aa(lp445
g430
aS'Philippines'
p446
aF0.01406729010623751
aF0.28633315663983294
aF26.265049220615555
ag4
(g8
S'!ZH[\x15e\xec?'
p447
tp448
Rp449
aa(lp450
g430
aS'North America'
p451
aF0.003882978348528297
aF0.570560478252
aF98.98028318517794
ag4
(g8
S'\xd8\x11\x0e\xbe\xb6\xa2\xee?'
p452
tp453
Rp454
aa(lp455
g430
aS'China'
p456
aF0.0031942286395983833
aF0.5054993333479036
aF45.48082645971043
ag4
(g8
S'\xe3f\n\xfcu\xef\xe9?'
p457
tp458
Rp459
aa(lp460
g430
aS'Japan'
p461
aF0.001617177149743347
aF0.6866050481543532
aF73.80637469435763
ag4
(g8
S'\x97YO\x08;{\xe4?'
p462
tp463
Rp464
aa(lp465
S'Video_Game_Console'
p466
aS'Tunisia'
p467
aF0.05150386092633856
aF0.0002018438694347247
aF17.702187284279137
ag4
(g8
S'\x0c7\xdd\xef\x0b\x90\xe5?'
p468
tp469
Rp470
aa(lp471
g466
aS'Kuwait'
p472
aF0.029090920707568597
aF0.1552749091019768
aF34.63062163512182
ag4
(g8
S'\x84[2U\xdat\xec?'
p473
tp474
Rp475
aa(lp476
g466
aS'Qatar'
p477
aF0.0026640242193758396
aF0.2740820303506138
aF68.48875821063127
ag4
(g8
S'\x88\xb7pc\xad\xa8\xe9?'
p478
tp479
Rp480
aa(lp481
g466
aS'Ecuador'
p482
aF0.06668296937775403
aF0.0005232653966020325
aF8.917130405606377
ag4
(g8
S'\xe3\xe9\xcf\xc7P\x00\xe1?'
p483
tp484
Rp485
aa(lp486
g466
aS'United Arab Emirates'
p487
aF0.014903682500545534
aF0.1767141656873538
aF34.720472282506705
ag4
(g8
S'\x9f\x96\x0b3\xe9\xb2\xeb?'
p488
tp489
Rp490
aa(lp491
S'Microwave_Oven'
p492
aS'Romania'
p493
aF0.013457256566819566
aF0.3691571741304303
aF37.97552972227238
ag4
(g8
S'\xb1\xbef\xe5\xb0\xd5\xea?'
p494
tp495
Rp496
aa(lp497
g492
aS'Singapore'
p498
aF0.005495823329804117
aF0.15861927437093937
aF72.63538040104977
ag4
(g8
S"q'\x9b\x89\xf6\x9b\xea?"
p499
tp500
Rp501
aa(lp502
g492
aS'United Arab Emirates'
p503
aF0.0014043728613830732
aF0.2766809116291488
aF97.50780170215089
ag4
(g8
S'\xbc\xcb\x9c%vp\xee?'
p504
tp505
Rp506
aa(lp507
g492
aS'Macedonia'
p508
aF0.012714556122232865
aF0.28004775415720556
aF49.698136874748364
ag4
(g8
S'\xf5\x14\xb6z\xb2\xd3\xed?'
p509
tp510
Rp511
aa(lp512
g492
aS'Austria'
p513
aF0.006489920635268669
aF0.20539646626547176
aF76.93243893019184
ag4
(g8
S'a\xa1\xfc\x10\xdaR\xea?'
p514
tp515
Rp516
aa(lp517
g492
aS'Hong Kong, China'
p518
aF0.004800285088718383
aF0.19051472093146168
aF80.7850483392142
ag4
(g8
S'\xae\x89\xbc\xac\xd6\xb9\xed?'
p519
tp520
Rp521
aa(lp522
g492
aS'Switzerland'
p523
aF0.003176107018271364
aF0.19679860665268492
aF71.85061739874145
ag4
(g8
S'\xd9\xabF\xf6)\xcf\xed?'
p524
tp525
Rp526
aa(lp527
g492
aS'South Korea'
p528
aF0.0026212980333085484
aF0.2327561692043886
aF95.02905246274025
ag4
(g8
S'\x9a\x88\xc1\x1e\xc2l\xee?'
p529
tp530
Rp531
aa(lp532
g492
aS'Spain'
p533
aF0.002083918387706348
aF0.21359359839879472
aF86.24429316310845
ag4
(g8
S'\xf5\x9f\x80\xddS\xe0\xea?'
p534
tp535
Rp536
aa(lp537
g492
aS'Bulgaria'
p538
aF0.008524131004252065
aF0.33156484018546417
aF42.64540489905688
ag4
(g8
S'\x88\xe0MH\xfb\xd7\xee?'
p539
tp540
Rp541
aa.