(dp0
S'D'
p1
(lp2
(lp3
F11.0
aF3.0
aF20.0
aF20.0
aa(lp4
F4.0
aF6.0
aF3.0
aF5.0
aa(lp5
F17.0
aF4.0
aF3.0
aF4.0
aa(lp6
F7.0
aF17.0
aF20.0
aF20.0
aa(lp7
F7.0
aF3.0
aF20.0
aF20.0
aa(lp8
F10.0
aF3.0
aF20.0
aF20.0
aa(lp9
F14.0
aF3.0
aF20.0
aF3.0
aa(lp10
F3.0
aF3.0
aF20.0
aF19.0
aa(lp11
F12.0
aF3.0
aF20.0
aF20.0
aa(lp12
F3.0
aF3.0
aF20.0
aF20.0
aa(lp13
F3.0
aF3.0
aF20.0
aF20.0
aa(lp14
F5.0
aF4.0
aF20.0
aF20.0
aa(lp15
F16.0
aF3.0
aF20.0
aF3.0
aa(lp16
F4.0
aF3.0
aF20.0
aF20.0
aa(lp17
F8.0
aF20.0
aF20.0
aF20.0
aa(lp18
F5.0
aF4.0
aF20.0
aF20.0
aa(lp19
F5.0
aF3.0
aF20.0
aF3.0
aa(lp20
F7.0
aF3.0
aF19.0
aF20.0
aa(lp21
F7.0
aF3.0
aF20.0
aF3.0
aa(lp22
F5.0
aF3.0
aF20.0
aF3.0
aa(lp23
F7.0
aF3.0
aF20.0
aF3.0
aa(lp24
F7.0
aF3.0
aF20.0
aF19.0
aa(lp25
F16.0
aF3.0
aF20.0
aF3.0
aa(lp26
F5.0
aF3.0
aF20.0
aF3.0
aa(lp27
F6.0
aF9.0
aF16.0
aF18.0
aa(lp28
F20.0
aF3.0
aF4.0
aF3.0
aa(lp29
F7.0
aF5.0
aF20.0
aF20.0
aa(lp30
F9.0
aF18.0
aF20.0
aF17.0
aa(lp31
F10.0
aF20.0
aF20.0
aF20.0
aa(lp32
F20.0
aF3.0
aF3.0
aF3.0
aa(lp33
F20.0
aF4.0
aF3.0
aF5.0
aa(lp34
F7.0
aF12.0
aF18.0
aF14.0
aa(lp35
F20.0
aF3.0
aF3.0
aF5.0
aa(lp36
F7.0
aF10.0
aF4.0
aF6.0
aa(lp37
F7.0
aF11.0
aF15.0
aF17.0
aa(lp38
F9.0
aF20.0
aF20.0
aF17.0
aa(lp39
F20.0
aF3.0
aF3.0
aF3.0
aa(lp40
F9.0
aF20.0
aF20.0
aF19.0
aa(lp41
F14.0
aF3.0
aF7.0
aF3.0
aa(lp42
F20.0
aF3.0
aF3.0
aF4.0
aa(lp43
F7.0
aF20.0
aF20.0
aF18.0
aa(lp44
F5.0
aF19.0
aF20.0
aF20.0
aa(lp45
F7.0
aF10.0
aF8.0
aF7.0
aa(lp46
F20.0
aF3.0
aF20.0
aF3.0
aa(lp47
F5.0
aF3.0
aF20.0
aF20.0
aa(lp48
F7.0
aF4.0
aF20.0
aF3.0
aa(lp49
F5.0
aF3.0
aF20.0
aF3.0
aa(lp50
F10.0
aF3.0
aF20.0
aF19.0
aa(lp51
F5.0
aF3.0
aF20.0
aF3.0
aa(lp52
F3.0
aF3.0
aF20.0
aF3.0
aa(lp53
F14.0
aF3.0
aF20.0
aF3.0
aa(lp54
F5.0
aF3.0
aF20.0
aF20.0
aa(lp55
F7.0
aF12.0
aF15.0
aF15.0
aa(lp56
F5.0
aF3.0
aF20.0
aF20.0
aa(lp57
F17.0
aF3.0
aF3.0
aF3.0
aa(lp58
F7.0
aF3.0
aF20.0
aF3.0
aa(lp59
F7.0
aF3.0
aF20.0
aF20.0
aa(lp60
F4.0
aF20.0
aF20.0
aF20.0
aa(lp61
F5.0
aF3.0
aF20.0
aF20.0
aa(lp62
F5.0
aF20.0
aF20.0
aF19.0
aa(lp63
F7.0
aF20.0
aF20.0
aF20.0
aa(lp64
F5.0
aF20.0
aF20.0
aF20.0
aa(lp65
F7.0
aF3.0
aF20.0
aF20.0
aa(lp66
F7.0
aF3.0
aF20.0
aF3.0
aa(lp67
F7.0
aF3.0
aF20.0
aF20.0
aa(lp68
F7.0
aF17.0
aF20.0
aF12.0
aa(lp69
F5.0
aF20.0
aF20.0
aF20.0
aa(lp70
F7.0
aF3.0
aF3.0
aF3.0
aa(lp71
F8.0
aF3.0
aF20.0
aF20.0
aa(lp72
F7.0
aF5.0
aF20.0
aF20.0
aa(lp73
F7.0
aF3.0
aF20.0
aF3.0
aa(lp74
F8.0
aF3.0
aF20.0
aF20.0
aa(lp75
F5.0
aF3.0
aF20.0
aF20.0
aa(lp76
F4.0
aF20.0
aF20.0
aF20.0
aa(lp77
F8.0
aF3.0
aF19.0
aF3.0
aa(lp78
F7.0
aF12.0
aF11.0
aF8.0
aa(lp79
F7.0
aF15.0
aF19.0
aF17.0
aa(lp80
F6.0
aF20.0
aF20.0
aF20.0
aa(lp81
F11.0
aF3.0
aF20.0
aF20.0
aa(lp82
F7.0
aF12.0
aF7.0
aF7.0
aa(lp83
F6.0
aF20.0
aF20.0
aF20.0
aa(lp84
F9.0
aF19.0
aF20.0
aF20.0
aa(lp85
F7.0
aF3.0
aF20.0
aF3.0
aa(lp86
F7.0
aF3.0
aF20.0
aF20.0
aa(lp87
F7.0
aF11.0
aF15.0
aF4.0
aa(lp88
F17.0
aF5.0
aF3.0
aF5.0
aa(lp89
F7.0
aF3.0
aF20.0
aF3.0
aa(lp90
F7.0
aF11.0
aF14.0
aF12.0
aa(lp91
F7.0
aF20.0
aF20.0
aF20.0
aa(lp92
F3.0
aF3.0
aF3.0
aF3.0
aa(lp93
F7.0
aF13.0
aF15.0
aF12.0
aa(lp94
F3.0
aF19.0
aF20.0
aF20.0
aa(lp95
F3.0
aF3.0
aF6.0
aF3.0
aa(lp96
F7.0
aF19.0
aF20.0
aF20.0
aa(lp97
F7.0
aF20.0
aF20.0
aF20.0
aa(lp98
F5.0
aF3.0
aF20.0
aF20.0
aa(lp99
F7.0
aF3.0
aF20.0
aF20.0
aa(lp100
F16.0
aF3.0
aF11.0
aF3.0
aa(lp101
F7.0
aF3.0
aF20.0
aF20.0
aa(lp102
F13.0
aF3.0
aF20.0
aF3.0
aa(lp103
F3.0
aF3.0
aF20.0
aF20.0
aa(lp104
F5.0
aF3.0
aF20.0
aF20.0
aa(lp105
F11.0
aF3.0
aF20.0
aF20.0
aa(lp106
F12.0
aF3.0
aF20.0
aF3.0
aasS'r2'
p107
(lp108
(lp109
cnumpy.core.multiarray
scalar
p110
(cnumpy
dtype
p111
(S'f8'
p112
I0
I1
tp113
Rp114
(I3
S'<'
p115
NNNI-1
I-1
I0
tp116
bS'2U\xd5DPX\xee?'
p117
tp118
Rp119
ag110
(g114
S'^\x82S|\xd8\xba\xeb?'
p120
tp121
Rp122
ag110
(g114
S'Y\xee\x1c\x13\x02o\xeb?'
p123
tp124
Rp125
ag110
(g114
S'\xfd\x8d\x0e\x99\xf6(\xeb?'
p126
tp127
Rp128
aa(lp129
g110
(g114
S'\x1cl\xd1CA\x89\xed?'
p130
tp131
Rp132
ag110
(g114
S'\xc6\xd8Q\x0e8\x15\xee?'
p133
tp134
Rp135
ag110
(g114
S'#\x11D\xe7?t\xef?'
p136
tp137
Rp138
ag110
(g114
S'\xd0\x9b\x97y\x98\x12\xef?'
p139
tp140
Rp141
aa(lp142
g110
(g114
S'o\x07L\xe9\xa5\xe0\xee?'
p143
tp144
Rp145
ag110
(g114
S'\xb5T@\xa2\xaf\x19\xef?'
p146
tp147
Rp148
ag110
(g114
S'\x06GQ\x9eu\x92\xef?'
p149
tp150
Rp151
ag110
(g114
S'\xb9\xa8\xb8u`|\xef?'
p152
tp153
Rp154
aa(lp155
g110
(g114
S'\xdc\xa2\xf2U\xcd\x1c\xef?'
p156
tp157
Rp158
ag110
(g114
S'\xae\xdb3/\x90\x91\xef?'
p159
tp160
Rp161
ag110
(g114
S'\x0fp\xaf\x17\x81x\xef?'
p162
tp163
Rp164
ag110
(g114
S'*\xf8\xf2\x0e\xa2k\xef?'
p165
tp166
Rp167
aa(lp168
g110
(g114
S'\xd1\xca\xa2\xe8K\x96\xef?'
p169
tp170
Rp171
ag110
(g114
S'<\x04\x12\xc3\x9d\x83\xef?'
p172
tp173
Rp174
ag110
(g114
S';\xa1_\xde\xde,\xef?'
p175
tp176
Rp177
ag110
(g114
S'\xcbJ\x97<"\x0f\xef?'
p178
tp179
Rp180
aa(lp181
g110
(g114
S'\x94\x8c\x941K\xef\xee?'
p182
tp183
Rp184
ag110
(g114
S'FB!7\\\xe9\xeb?'
p185
tp186
Rp187
ag110
(g114
S'\xd1\xae\x10n\t8\xea?'
p188
tp189
Rp190
ag110
(g114
S'K0\x89\xea\xd5+\xea?'
p191
tp192
Rp193
aa(lp194
g110
(g114
S'\x9e\xc7\xaf\x95L\xfe\xee?'
p195
tp196
Rp197
ag110
(g114
S'a\x89#\xcf:T\xed?'
p198
tp199
Rp200
ag110
(g114
S'.\xb6\x1b\x1fO\xc6\xeb?'
p201
tp202
Rp203
ag110
(g114
S'X\x19-Ufz\xec?'
p204
tp205
Rp206
aa(lp207
g110
(g114
S'\x95\x92\xe9\x95\xc9\xb3\xed?'
p208
tp209
Rp210
ag110
(g114
S'\xd6\\u%&\xdc\xec?'
p211
tp212
Rp213
ag110
(g114
S'\xfb\x83\xc6\x046\x06\xec?'
p214
tp215
Rp216
ag110
(g114
S'\xd4[\xd5\xa5\xaa\xc5\xeb?'
p217
tp218
Rp219
aa(lp220
g110
(g114
S'\xe0~\xf2Q\xee\x08\xee?'
p221
tp222
Rp223
ag110
(g114
S'\xb8\x8e4\xc4\x97C\xec?'
p224
tp225
Rp226
ag110
(g114
S'\xc7t7+\xb6\xf4\xea?'
p227
tp228
Rp229
ag110
(g114
S"s\x8d\x94\xf9\xd2'\xeb?"
p230
tp231
Rp232
aa(lp233
g110
(g114
S'b\xff\xe1\x05\xd8\x1a\xee?'
p234
tp235
Rp236
ag110
(g114
S'j\xbc>|\x81!\xed?'
p237
tp238
Rp239
ag110
(g114
S'\x88;]0\xa3\x0e\xeb?'
p240
tp241
Rp242
ag110
(g114
S'k\x12\xf8\xa1\xc2\x86\xeb?'
p243
tp244
Rp245
aa(lp246
g110
(g114
S'\xa1\x87\x07\x008\x96\xef?'
p247
tp248
Rp249
ag110
(g114
S'\xd4-\xd5\x84\x84\x17\xef?'
p250
tp251
Rp252
ag110
(g114
S'\x17\xe9Sk}\x88\xed?'
p253
tp254
Rp255
ag110
(g114
S'\x80\xc9\x1f\xf5?[\xed?'
p256
tp257
Rp258
aa(lp259
g110
(g114
S'\xcf\xfc\x9aB\xfc&\xee?'
p260
tp261
Rp262
ag110
(g114
S'\xf9\x9fO7\xbb"\xec?'
p263
tp264
Rp265
ag110
(g114
S'\x86\x10\xc1\xbd\xdb\xe8\xec?'
p266
tp267
Rp268
ag110
(g114
S'\xffq\xd5\xca\x94\xf0\xea?'
p269
tp270
Rp271
aa(lp272
g110
(g114
S'e\x99\xd3\xe9\xba\xea\xee?'
p273
tp274
Rp275
ag110
(g114
S"c\xb4O\xcb\xdc'\xee?"
p276
tp277
Rp278
ag110
(g114
S':\xfd\xdf\x8dO\xd9\xec?'
p279
tp280
Rp281
ag110
(g114
S'2\xfa\xe2A\xdd\x88\xed?'
p282
tp283
Rp284
aa(lp285
g110
(g114
S'\xb4\xcd\x17\x9a\xfd[\xef?'
p286
tp287
Rp288
ag110
(g114
S'\xafXs\xe3Nb\xee?'
p289
tp290
Rp291
ag110
(g114
S'\xdd\xff\xfc>&J\xec?'
p292
tp293
Rp294
ag110
(g114
S'V\xcb\x9e{/\xf9\xec?'
p295
tp296
Rp297
aa(lp298
g110
(g114
S'\xad\xb5\xb7\xc8\t\xed\xe7?'
p299
tp300
Rp301
ag110
(g114
S'\x9ds\xcf&\xc7\x05\xe4?'
p302
tp303
Rp304
ag110
(g114
S'\x16#r,<\x8e\xe4?'
p305
tp306
Rp307
ag110
(g114
S'\nD\xda\x08.\x8f\xe4?'
p308
tp309
Rp310
aa(lp311
g110
(g114
S'$\x91\x80\x87Ab\xef?'
p312
tp313
Rp314
ag110
(g114
S'\xe5\xe2b\x1d8\x0f\xee?'
p315
tp316
Rp317
ag110
(g114
S'\xaa\x08\xa0F\xddW\xec?'
p318
tp319
Rp320
ag110
(g114
S'Q?\x93\xbdI\xa1\xec?'
p321
tp322
Rp323
aa(lp324
g110
(g114
S',!\xfbp\xe7(\xef?'
p325
tp326
Rp327
ag110
(g114
S'\xfa"\xfa1z\x08\xee?'
p328
tp329
Rp330
ag110
(g114
S'\xdb\x9c\x9f\x1a6\xc6\xeb?'
p331
tp332
Rp333
ag110
(g114
S'v+\xc2Wj\x0f\xed?'
p334
tp335
Rp336
aa(lp337
g110
(g114
S'l8\x91\xc1\xa3\x03\xed?'
p338
tp339
Rp340
ag110
(g114
S'M\xaf\x90\x17\xa4-\xed?'
p341
tp342
Rp343
ag110
(g114
S'\xcbP\xfeF\xdb\x8d\xec?'
p344
tp345
Rp346
ag110
(g114
S'n\xae\xe2\x9e`\xc9\xec?'
p347
tp348
Rp349
aa(lp350
g110
(g114
S'\x86\x194\xee"\xec\xee?'
p351
tp352
Rp353
ag110
(g114
S'O&\x8d5\xba\xe5\xee?'
p354
tp355
Rp356
ag110
(g114
S'\x10\xfaD\x00\xb6\xc7\xed?'
p357
tp358
Rp359
ag110
(g114
S'Lr\xda\xc0\x86\xf4\xed?'
p360
tp361
Rp362
aa(lp363
g110
(g114
S'% \xdd\xa6\x13)\xef?'
p364
tp365
Rp366
ag110
(g114
S'\x1d\xc8\xb4\x03\xf9\xda\xed?'
p367
tp368
Rp369
ag110
(g114
S'"\xf0\x92V\x8e\x97\xeb?'
p370
tp371
Rp372
ag110
(g114
S'\xef\xf5PG\xf5P\xec?'
p373
tp374
Rp375
aa(lp376
g110
(g114
S'k\xac\x1cM\x95f\xef?'
p377
tp378
Rp379
ag110
(g114
S'\x17\xd8\xf9\xa3\x8aL\xef?'
p380
tp381
Rp382
ag110
(g114
S'.\xdb)\x91!\xd7\xed?'
p383
tp384
Rp385
ag110
(g114
S'\x9b\x81\x10]\x02p\xee?'
p386
tp387
Rp388
aa(lp389
g110
(g114
S']\x03G\x16(\xae\xee?'
p390
tp391
Rp392
ag110
(g114
S'\x9cz\x7f\xe9\xcb\xac\xee?'
p393
tp394
Rp395
ag110
(g114
S'\xe1\x11\xd2m\\\xcf\xed?'
p396
tp397
Rp398
ag110
(g114
S"\x0e\x97'\xae\xcb\xdc\xed?"
p399
tp400
Rp401
aa(lp402
g110
(g114
S'\x04\xd9\x94\xc4Yz\xee?'
p403
tp404
Rp405
ag110
(g114
S'S<\xb9H\xfaX\xec?'
p406
tp407
Rp408
ag110
(g114
S'h`N\xe0A\x9c\xea?'
p409
tp410
Rp411
ag110
(g114
S'\xb1\xf0\xda\xebqR\xeb?'
p412
tp413
Rp414
aa(lp415
g110
(g114
S'\xffb\x91.G\xf5\xec?'
p416
tp417
Rp418
ag110
(g114
S'(\xad\xd7\xca%B\xec?'
p419
tp420
Rp421
ag110
(g114
S'\xda\\T\xbbL\x92\xea?'
p422
tp423
Rp424
ag110
(g114
S'r\x9d~e\x03.\xeb?'
p425
tp426
Rp427
aa(lp428
g110
(g114
S'(\xd8\xf5\xcb%"\xe4?'
p429
tp430
Rp431
ag110
(g114
S'&5@G}\xd8\xe4?'
p432
tp433
Rp434
ag110
(g114
S'\xd7\xe2\xa6\xc7\xd7\x03\xe5?'
p435
tp436
Rp437
ag110
(g114
S'\x1f\xe3\xbb\x8e\x9a\xfe\xe4?'
p438
tp439
Rp440
aa(lp441
g110
(g114
S'\x8f\xa3\xaf\x17\x92o\xc4?'
p442
tp443
Rp444
ag110
(g114
S'\xc5\x18\xf8\xb14\xc5\xbb?'
p445
tp446
Rp447
ag110
(g114
S'\xc0\x15]\x9aH\xd9\xce?'
p448
tp449
Rp450
ag110
(g114
S'\xae\xd6H\xe6\xa3\x15\xbc?'
p451
tp452
Rp453
aa(lp454
g110
(g114
S'\xbf\x17/\x95>\x9a\xed?'
p455
tp456
Rp457
ag110
(g114
S'\n\x96\xae\x8d\xc5\xcd\xed?'
p458
tp459
Rp460
ag110
(g114
S'R\xd9mK\xcf\xc0\xed?'
p461
tp462
Rp463
ag110
(g114
S'\x04\xae\xb3x\xfc\xbb\xed?'
p464
tp465
Rp466
aa(lp467
g110
(g114
S'\xd8\xba\xba&l0\xed?'
p468
tp469
Rp470
ag110
(g114
S'V\x1e9\x92\x07\xed\xec?'
p471
tp472
Rp473
ag110
(g114
S'\x1c\xf5\xeb\xe3C?\xed?'
p474
tp475
Rp476
ag110
(g114
S'f\x9c6\xff\xacf\xed?'
p477
tp478
Rp479
aa(lp480
g110
(g114
S'\x05\x04\xed\xec\xa8\xc4\xe8?'
p481
tp482
Rp483
ag110
(g114
S'\xad\xc8\xd8\xf2\xb5Y\xe4?'
p484
tp485
Rp486
ag110
(g114
S'\x19\x17\n\xf7\xc0.\xe7?'
p487
tp488
Rp489
ag110
(g114
S'\x92R\x15\xac\t\x9a\xe0?'
p490
tp491
Rp492
aa(lp493
g110
(g114
S'\xe4\xd2\xb2\xf5\xeaN\xd1?'
p494
tp495
Rp496
ag110
(g114
S's\xce>p\xa4?\xcc?'
p497
tp498
Rp499
ag110
(g114
S'ek\x8f\xfc;\xe0\xcb?'
p500
tp501
Rp502
ag110
(g114
S'\x03\xa2P\xac\xa7s\xcb?'
p503
tp504
Rp505
aa(lp506
g110
(g114
S'\xa6\x1d\xebX\x97\xe7\xe0?'
p507
tp508
Rp509
ag110
(g114
S'\x13=\xd7\x94S\x14\xe0?'
p510
tp511
Rp512
ag110
(g114
S'>%]\xb6bj\xe1?'
p513
tp514
Rp515
ag110
(g114
S'\xf7/\xe8\\\x8c\x10\xe1?'
p516
tp517
Rp518
aa(lp519
g110
(g114
S'\xf2>wd\xday\xe9?'
p520
tp521
Rp522
ag110
(g114
S'k\x08\xf6-\x7ft\xeb?'
p523
tp524
Rp525
ag110
(g114
S'\xb9{\xf0\x0b\xac4\xec?'
p526
tp527
Rp528
ag110
(g114
S'\xb3\x9bpI&\xfd\xed?'
p529
tp530
Rp531
aa(lp532
g110
(g114
S'9x_y\xc7\xdf\xd6?'
p533
tp534
Rp535
ag110
(g114
S'j\xe5\x92[\xc0\xa2\xd3?'
p536
tp537
Rp538
ag110
(g114
S'\xb2/\x8f\xb0\x9a\x8d\xdd?'
p539
tp540
Rp541
ag110
(g114
S'n\xec\xba\x16k\xf2\xd6?'
p542
tp543
Rp544
aa(lp545
g110
(g114
S'\xfe$R\xce\x88\x00\xea?'
p546
tp547
Rp548
ag110
(g114
S'\xe9X \xe0p\x16\xec?'
p549
tp550
Rp551
ag110
(g114
S't\n\x0e\x93]\xaf\xef?'
p552
tp553
Rp554
ag110
(g114
S'K`\x8e\\(\xdd\xee?'
p555
tp556
Rp557
aa(lp558
g110
(g114
S'\xc6\x96\x8e\xfb\xcd?\xed?'
p559
tp560
Rp561
ag110
(g114
S'7\xfcNO\x17b\xee?'
p562
tp563
Rp564
ag110
(g114
S':\x82$@\xf7\xba\xee?'
p565
tp566
Rp567
ag110
(g114
S'\x97\xbf%l\xa2\xb4\xee?'
p568
tp569
Rp570
aa(lp571
g110
(g114
S'\x8e\x04\xa5\xf1\x17$\xed?'
p572
tp573
Rp574
ag110
(g114
S'\xa0C\xb5\xed\xb5\xee\xec?'
p575
tp576
Rp577
ag110
(g114
S'\xd9\xc7s\x9e\xcc\xc2\xea?'
p578
tp579
Rp580
ag110
(g114
S'\xc8\x9bY\xf2\xc17\xeb?'
p581
tp582
Rp583
aa(lp584
g110
(g114
S'\x7f\xb3N#\xedW\xef?'
p585
tp586
Rp587
ag110
(g114
S'\xefhD\x84\xe7\x8b\xee?'
p588
tp589
Rp590
ag110
(g114
S'\xa8\xd8\xb0+\xf1\x18\xef?'
p591
tp592
Rp593
ag110
(g114
S'l\xae\x18T\x93\xdc\xee?'
p594
tp595
Rp596
aa(lp597
g110
(g114
S'\xec\xdb\x97\x8b\x96P\xea?'
p598
tp599
Rp600
ag110
(g114
S'o\xb4\xc4\xcc]/\xe8?'
p601
tp602
Rp603
ag110
(g114
S'\xa0\nI\xb7(m\xe7?'
p604
tp605
Rp606
ag110
(g114
S'\xf4SR^\xd9\x8d\xe9?'
p607
tp608
Rp609
aa(lp610
g110
(g114
S'\x0c3\xb1U\xd2\xd1\xe8?'
p611
tp612
Rp613
ag110
(g114
S'7\xefW\xe2\xad\xfd\xe8?'
p614
tp615
Rp616
ag110
(g114
S'\xd6\xa6\xb7e\xfd\xff\xe8?'
p617
tp618
Rp619
ag110
(g114
S'F5\x88I\xe7F\xe9?'
p620
tp621
Rp622
aa(lp623
g110
(g114
S'o\x11#e\xb3\xc8\xe5?'
p624
tp625
Rp626
ag110
(g114
S'\xf6\xd0\xa4DGy\xe3?'
p627
tp628
Rp629
ag110
(g114
S'>:.;d\xba\xe7?'
p630
tp631
Rp632
ag110
(g114
S'\x0e\x9b\xf6z\xc0\x9f\xe4?'
p633
tp634
Rp635
aa(lp636
g110
(g114
S'\xa2\x96~\x00W\x07\xe9?'
p637
tp638
Rp639
ag110
(g114
S'1\x1d\xab\x01WH\xea?'
p640
tp641
Rp642
ag110
(g114
S'\x94\xff\xfe\x97O\xdb\xea?'
p643
tp644
Rp645
ag110
(g114
S'\xfe{\x86\x93$Y\xec?'
p646
tp647
Rp648
aa(lp649
g110
(g114
S'b\x02g\xa2\x15\xcd\xed?'
p650
tp651
Rp652
ag110
(g114
S'ff\xdc\xdd)\xb8\xe9?'
p653
tp654
Rp655
ag110
(g114
S'\xc8\xf7Qu\x15X\xe8?'
p656
tp657
Rp658
ag110
(g114
S'<\x7fh\xd7\xe8\xfc\xe6?'
p659
tp660
Rp661
aa(lp662
g110
(g114
S'\xf3Q]#\xc6\x95\xec?'
p663
tp664
Rp665
ag110
(g114
S'1\x8d\xa0I\x9e\x1f\xee?'
p666
tp667
Rp668
ag110
(g114
S'EU\xc3\xa6!\xab\xef?'
p669
tp670
Rp671
ag110
(g114
S'\x1f|\xc4^\xeb\x81\xef?'
p672
tp673
Rp674
aa(lp675
g110
(g114
S'r\x9a\x8aL\xe2\xdd\xee?'
p676
tp677
Rp678
ag110
(g114
S'v\x10\xdd{\xfa\x18\xee?'
p679
tp680
Rp681
ag110
(g114
S'b\xcb\x92uxr\xec?'
p682
tp683
Rp684
ag110
(g114
S'e\xd2\xc68\xb3\xbe\xed?'
p685
tp686
Rp687
aa(lp688
g110
(g114
S'\x93v\x1b\xcd\xea&\xec?'
p689
tp690
Rp691
ag110
(g114
S'us\xd5\xea\xd63\xe9?'
p692
tp693
Rp694
ag110
(g114
S'\x18<\x95nG\xfa\xe6?'
p695
tp696
Rp697
ag110
(g114
S'\x19\xc3\x141\x04\n\xe7?'
p698
tp699
Rp700
aa(lp701
g110
(g114
S'\x96\x06\xe9\xa6\x0e\xb1\xeb?'
p702
tp703
Rp704
ag110
(g114
S'R"\xde\xe0\x10\x05\xec?'
p705
tp706
Rp707
ag110
(g114
S'\x89\xd6D\xe1\xc2W\xeb?'
p708
tp709
Rp710
ag110
(g114
S'F\r\xb8.\xf2\xac\xeb?'
p711
tp712
Rp713
aa(lp714
g110
(g114
S'2\x00s\xbc\xb6\xa8\xee?'
p715
tp716
Rp717
ag110
(g114
S'\x0bs\xf8\xea\x15\xde\xed?'
p718
tp719
Rp720
ag110
(g114
S'\xb6\xda\xcb\xea\xdc\x06\xec?'
p721
tp722
Rp723
ag110
(g114
S'\x99\xd6\x84\x16qg\xec?'
p724
tp725
Rp726
aa(lp727
g110
(g114
S'\xcbSN\xf15\x03\xec?'
p728
tp729
Rp730
ag110
(g114
S'\xb7\xfb<\x85\x84I\xe6?'
p731
tp732
Rp733
ag110
(g114
S'\x19\x12h\xd04\x90\xe4?'
p734
tp735
Rp736
ag110
(g114
S'Z\xa3\x8e\xf3\xb6\x1a\xe4?'
p737
tp738
Rp739
aa(lp740
g110
(g114
S'\xcc\x00\xc0\x81\xf6\x00\xee?'
p741
tp742
Rp743
ag110
(g114
S'\x83\x7f\xa6\xe3\x90\xbd\xec?'
p744
tp745
Rp746
ag110
(g114
S'=\xde\x82G\x087\xeb?'
p747
tp748
Rp749
ag110
(g114
S'WN\x11\xd0T\xbc\xeb?'
p750
tp751
Rp752
aa(lp753
g110
(g114
S'\x12[\x14\x88g\xaf\xef?'
p754
tp755
Rp756
ag110
(g114
S'\x02] d\xda\xf6\xee?'
p757
tp758
Rp759
ag110
(g114
S'\xcf\x8e\xb9\x01\xd3\xc4\xec?'
p760
tp761
Rp762
ag110
(g114
S'\x90\xc3\xa6j\xca\xca\xed?'
p763
tp764
Rp765
aa(lp766
g110
(g114
S'\x8c\xcd\x8fu\xe9\xbb\xec?'
p767
tp768
Rp769
ag110
(g114
S'\x84\x8d\xf8\x17n\xa5\xec?'
p770
tp771
Rp772
ag110
(g114
S'd\x19\xf5\x8f\xd0\x03\xec?'
p773
tp774
Rp775
ag110
(g114
S'Z\x8e\xe3^f\xa7\xec?'
p776
tp777
Rp778
aa(lp779
g110
(g114
S'\x9f\x02\x1e"\x81\x06\xee?'
p780
tp781
Rp782
ag110
(g114
S'V\xe7u\xba\xba\x99\xec?'
p783
tp784
Rp785
ag110
(g114
S'\x83\xeaO\xa8\xebT\xec?'
p786
tp787
Rp788
ag110
(g114
S'\x15u\x0c\xc3\x1b\x9b\xeb?'
p789
tp790
Rp791
aa(lp792
g110
(g114
S'&\x00F|\x07 \xe6?'
p793
tp794
Rp795
ag110
(g114
S'G_\xbd\x08\x04\x05\xe8?'
p796
tp797
Rp798
ag110
(g114
S'\xc3n\x9f\x14\xd2!\xe9?'
p799
tp800
Rp801
ag110
(g114
S'\x96\x1e\x03-\xba\xed\xe8?'
p802
tp803
Rp804
aa(lp805
g110
(g114
S'\x8c\xf1\xd2\xe2\x1f\x1b\xee?'
p806
tp807
Rp808
ag110
(g114
S'mD0\xf40\x9b\xeb?'
p809
tp810
Rp811
ag110
(g114
S'\xb7\xcdU\t\xceb\xe9?'
p812
tp813
Rp814
ag110
(g114
S'8\xe8TZ+\x8b\xe9?'
p815
tp816
Rp817
aa(lp818
g110
(g114
S'K/\x0b\xd1\xea\x9b\xe6?'
p819
tp820
Rp821
ag110
(g114
S'I\xa6\xaa\xf5\xf4\x11\xe4?'
p822
tp823
Rp824
ag110
(g114
S'\x82\x1c\xc0\xdb\xf4\n\xe5?'
p825
tp826
Rp827
ag110
(g114
S'\xeb\x16*\xed;\xfb\xe3?'
p828
tp829
Rp830
aa(lp831
g110
(g114
S'\xd3\xb2\x95\xe3U@\xef?'
p832
tp833
Rp834
ag110
(g114
S'F\xeb\\\x94\xddZ\xef?'
p835
tp836
Rp837
ag110
(g114
S'\xfecP\x01V\x18\xee?'
p838
tp839
Rp840
ag110
(g114
S'\xf7\xd7\xda\xde\x15\xcc\xee?'
p841
tp842
Rp843
aa(lp844
g110
(g114
S'\xb6\x0b\xdfS\x18\x14\xef?'
p845
tp846
Rp847
ag110
(g114
S'M\xeb\x1f\r\x9aQ\xef?'
p848
tp849
Rp850
ag110
(g114
S'f\x9a\x08\x8bME\xee?'
p851
tp852
Rp853
ag110
(g114
S'0rq1\xfbS\xee?'
p854
tp855
Rp856
aa(lp857
g110
(g114
S'\xe9L\xaa\xbf\xb5\x1f\xef?'
p858
tp859
Rp860
ag110
(g114
S'\xd8\xfe\rO\xe2\xbb\xed?'
p861
tp862
Rp863
ag110
(g114
S'\x99\x1f\xa6\x96\x81\xd4\xec?'
p864
tp865
Rp866
ag110
(g114
S"VJ\xd3'\x18b\xeb?"
p867
tp868
Rp869
aa(lp870
g110
(g114
S'J\x07h\x99\xd6 \xed?'
p871
tp872
Rp873
ag110
(g114
S'\xa4\xdc7\x85\x12\xdd\xeb?'
p874
tp875
Rp876
ag110
(g114
S'\n\xa4\xb6"\xa3}\xea?'
p877
tp878
Rp879
ag110
(g114
S'i6B\x86\x87\x8c\xea?'
p880
tp881
Rp882
aa(lp883
g110
(g114
S'\x89\x871Yc"\xe9?'
p884
tp885
Rp886
ag110
(g114
S'\x1b@\xd4\xe7\x14)\xe7?'
p887
tp888
Rp889
ag110
(g114
S' ;\xaen4\x8b\xe5?'
p890
tp891
Rp892
ag110
(g114
S'%\xc5\xee\xac\xd8s\xe4?'
p893
tp894
Rp895
aa(lp896
g110
(g114
S'\xbe.F\xea)*\xee?'
p897
tp898
Rp899
ag110
(g114
S'\x1d\xd4\xc7-\xb7\xe6\xed?'
p900
tp901
Rp902
ag110
(g114
S'1\xc76*\xc8\xe1\xec?'
p903
tp904
Rp905
ag110
(g114
S'\x02h\xb0)N\xf4\xec?'
p906
tp907
Rp908
aa(lp909
g110
(g114
S'\x94$:\xd6\\\xb9\xee?'
p910
tp911
Rp912
ag110
(g114
S'\xf8\x91\x1e\xffK\xe2\xea?'
p913
tp914
Rp915
ag110
(g114
S'm\xb8\xfc\xe5n\x83\xe8?'
p916
tp917
Rp918
ag110
(g114
S'~\xb5\xa4\x8f+M\xe9?'
p919
tp920
Rp921
aa(lp922
g110
(g114
S'\x81\xf9\x8b\xb7\xcf*\xed?'
p923
tp924
Rp925
ag110
(g114
S'1\xd0\xd1\xf7Q\xf0\xec?'
p926
tp927
Rp928
ag110
(g114
S'd\x91\xe9U\x8b\x9d\xeb?'
p929
tp930
Rp931
ag110
(g114
S'\xd1\x0c=\x9c\xa6\xd8\xeb?'
p932
tp933
Rp934
aa(lp935
g110
(g114
S'\xe9\xfeQ\xcf{\x1c\xed?'
p936
tp937
Rp938
ag110
(g114
S'f^[c\x95\x06\xed?'
p939
tp940
Rp941
ag110
(g114
S'\x83\x86\xe0\xd3\xe7W\xeb?'
p942
tp943
Rp944
ag110
(g114
S'sa\xd12\xb6\xac\xec?'
p945
tp946
Rp947
aa(lp948
g110
(g114
S'\x9d\xe4\x92u\xe7v\xef?'
p949
tp950
Rp951
ag110
(g114
S'M\x11\x043]\xf5\xee?'
p952
tp953
Rp954
ag110
(g114
S'?\xd9\xa0\xd8\xfe\x93\xed?'
p955
tp956
Rp957
ag110
(g114
S'\x06\x13\xb5=\x12\xb6\xed?'
p958
tp959
Rp960
aa(lp961
g110
(g114
S'Wr\x8f\x88\n\xa8\xe4?'
p962
tp963
Rp964
ag110
(g114
S'Aa.C\xcb$\xe6?'
p965
tp966
Rp967
ag110
(g114
S'\xa7\x1e&I\xcbm\xe6?'
p968
tp969
Rp970
ag110
(g114
S'a%N\xc0<i\xe8?'
p971
tp972
Rp973
aa(lp974
g110
(g114
S',\x9c\xb8\x93[\xeb\xeb?'
p975
tp976
Rp977
ag110
(g114
S'\xd5A\xd9\xe3=\xb7\xea?'
p978
tp979
Rp980
ag110
(g114
S'\xf9\xd4u\xdc\xdd\x99\xe9?'
p981
tp982
Rp983
ag110
(g114
S'\xe6\xb7\x8a\xfc(\x8c\xe9?'
p984
tp985
Rp986
aa(lp987
g110
(g114
S'\x13\x1a\x84i\x7f\xa2\xec?'
p988
tp989
Rp990
ag110
(g114
S'\xdeO\xde\xf4\xbe\xce\xec?'
p991
tp992
Rp993
ag110
(g114
S'\xe2\x9c\xd5c\x8c\xfa\xec?'
p994
tp995
Rp996
ag110
(g114
S'\xca\xa7\x05I\xb1\x14\xed?'
p997
tp998
Rp999
aa(lp1000
g110
(g114
S'\x10\x86\xee\xcb\xeeS\xea?'
p1001
tp1002
Rp1003
ag110
(g114
S'\x03U\xee\xa7C\x95\xe9?'
p1004
tp1005
Rp1006
ag110
(g114
S'\x83b\x94\x95\xa0!\xe8?'
p1007
tp1008
Rp1009
ag110
(g114
S';\x85\xeb\xcen|\xe8?'
p1010
tp1011
Rp1012
aa(lp1013
g110
(g114
S'\xa1\xfd\x19\xd1\xc1\xbc\xec?'
p1014
tp1015
Rp1016
ag110
(g114
S'#\x9f&\xa7QY\xed?'
p1017
tp1018
Rp1019
ag110
(g114
S'\xa1)\xab]I-\xed?'
p1020
tp1021
Rp1022
ag110
(g114
S'\xcc\xb17\xf6\xde/\xed?'
p1023
tp1024
Rp1025
aa(lp1026
g110
(g114
S'^\x11\x9bk\x83r\xee?'
p1027
tp1028
Rp1029
ag110
(g114
S'^-D\x94\x98\xf6\xee?'
p1030
tp1031
Rp1032
ag110
(g114
S'\tgX\xca3)\xee?'
p1033
tp1034
Rp1035
ag110
(g114
S'\x84y\xcbU\xe7\x0e\xef?'
p1036
tp1037
Rp1038
aa(lp1039
g110
(g114
S'\xf8=\xb1\x95\xd9\xa9\xe8?'
p1040
tp1041
Rp1042
ag110
(g114
S'8{\xf4\xd9\xf8\xba\xe4?'
p1043
tp1044
Rp1045
ag110
(g114
S'\xf3\xf8eKT0\xe3?'
p1046
tp1047
Rp1048
ag110
(g114
S'\xa2\xad\xe2\x13v\xf4\xe2?'
p1049
tp1050
Rp1051
aa(lp1052
g110
(g114
S'\xb3\xa3\xd2\xdf9\xc5\xef?'
p1053
tp1054
Rp1055
ag110
(g114
S'm\xe7vt\x99\x16\xef?'
p1056
tp1057
Rp1058
ag110
(g114
S'\xd8|\xfa{\xacb\xee?'
p1059
tp1060
Rp1061
ag110
(g114
S'\xf9.\xde\xa71e\xee?'
p1062
tp1063
Rp1064
aa(lp1065
g110
(g114
S'\xfa"\xfde\rF\xec?'
p1066
tp1067
Rp1068
ag110
(g114
S':zI\xeb\xaeK\xec?'
p1069
tp1070
Rp1071
ag110
(g114
S'\xa6\xc6m\x16\xc7\xdb\xea?'
p1072
tp1073
Rp1074
ag110
(g114
S"'\x1b&\xa7\xbeA\xeb?"
p1075
tp1076
Rp1077
aa(lp1078
g110
(g114
S'pm\xd0\xdd\xe4&\xef?'
p1079
tp1080
Rp1081
ag110
(g114
S'\xf0\x1ah\x8a!\xd6\xed?'
p1082
tp1083
Rp1084
ag110
(g114
S'\r\xb6/\\\xba\x98\xeb?'
p1085
tp1086
Rp1087
ag110
(g114
S'Pz\xacq\xb4\xc4\xec?'
p1088
tp1089
Rp1090
aa(lp1091
g110
(g114
S'\x14\xd7\xae\x94\x16\x01\xec?'
p1092
tp1093
Rp1094
ag110
(g114
S'8\x16\x1b\x04\xc7e\xed?'
p1095
tp1096
Rp1097
ag110
(g114
S'\x99g]\xe3)\xd5\xee?'
p1098
tp1099
Rp1100
ag110
(g114
S'\xe9\xed\xff\xf5\xfc\xd8\xee?'
p1101
tp1102
Rp1103
aa(lp1104
g110
(g114
S'\xb3\xe0\xda\x88\xbd\xad\xe8?'
p1105
tp1106
Rp1107
ag110
(g114
S'\x9e\xf7\x9a-\xe8\xa3\xe9?'
p1108
tp1109
Rp1110
ag110
(g114
S'\x8e$p\x08m \xea?'
p1111
tp1112
Rp1113
ag110
(g114
S'x\xfa\xf5\xbaR\x08\xea?'
p1114
tp1115
Rp1116
aa(lp1117
g110
(g114
S'\xd0\x18\xaf\xca\x82\xbc\xeb?'
p1118
tp1119
Rp1120
ag110
(g114
S'\x16\xf0\x82\x0b\xc8d\xeb?'
p1121
tp1122
Rp1123
ag110
(g114
S'\xd3\xa6$`\x8e\xa3\xeb?'
p1124
tp1125
Rp1126
ag110
(g114
S'\xa0\xf7\xcbIaJ\xeb?'
p1127
tp1128
Rp1129
aa(lp1130
g110
(g114
S'\xa6\xca"K\xee&\xe7?'
p1131
tp1132
Rp1133
ag110
(g114
S'\xef\x89\xe7\xed-9\xe1?'
p1134
tp1135
Rp1136
ag110
(g114
S'$&v\xb8wz\xe2?'
p1137
tp1138
Rp1139
ag110
(g114
S'\x8aX\x94\x8c \x99\xe3?'
p1140
tp1141
Rp1142
aa(lp1143
g110
(g114
S'\xdf\xe9\xbc\xce\xb2X\xe6?'
p1144
tp1145
Rp1146
ag110
(g114
S'\xdf\\\xa237\x00\xe9?'
p1147
tp1148
Rp1149
ag110
(g114
S'\xa3;\x92)\xd5h\xeb?'
p1150
tp1151
Rp1152
ag110
(g114
S'.\x0f\x1e\xa6\x1fN\xeb?'
p1153
tp1154
Rp1155
aa(lp1156
g110
(g114
S'E ,\x9c\xb6\x10\xed?'
p1157
tp1158
Rp1159
ag110
(g114
S'\x88\xc3#\xe5\xaa\x96\xe7?'
p1160
tp1161
Rp1162
ag110
(g114
S'\xdc\xd8\x8f\x9c*\xfc\xe0?'
p1163
tp1164
Rp1165
ag110
(g114
S'\xad\xd0o\xf7\x1b\x03\xe6?'
p1166
tp1167
Rp1168
aa(lp1169
g110
(g114
S'\xc6\xf8\xd5\x06\x142\xd1?'
p1170
tp1171
Rp1172
ag110
(g114
S'!\xe1\xde\xa9\x96\x9f\xc2?'
p1173
tp1174
Rp1175
ag110
(g114
S'\xbd\xf8Ob\xe5p\xc5?'
p1176
tp1177
Rp1178
ag110
(g114
S'b\xd3\xbcL\xe6\xfa\xbe?'
p1179
tp1180
Rp1181
aa(lp1182
g110
(g114
S'p\xe6\x85\xd4\xf9\x9f\xee?'
p1183
tp1184
Rp1185
ag110
(g114
S'n&o\x10\x91\xe6\xee?'
p1186
tp1187
Rp1188
ag110
(g114
S'$\x7f\x16m\xadx\xed?'
p1189
tp1190
Rp1191
ag110
(g114
S'\xb8\nu\x01\xc3\xcf\xee?'
p1192
tp1193
Rp1194
aa(lp1195
g110
(g114
S'@i\xa6\rJ\xd6\xee?'
p1196
tp1197
Rp1198
ag110
(g114
S'/\xc0k\xc6M*\xef?'
p1199
tp1200
Rp1201
ag110
(g114
S'cy\xe8-.\x8f\xee?'
p1202
tp1203
Rp1204
ag110
(g114
S'\xc6\xbe\\\x93o\xac\xee?'
p1205
tp1206
Rp1207
aa(lp1208
g110
(g114
S'\n\xf0QVX\x98\xed?'
p1209
tp1210
Rp1211
ag110
(g114
S'\xa8n\xf8\xc7\xbc\x05\xef?'
p1212
tp1213
Rp1214
ag110
(g114
S'/\x9b\xa6\x1e\x93-\xef?'
p1215
tp1216
Rp1217
ag110
(g114
S'\xd3u"\x95Q\xaf\xef?'
p1218
tp1219
Rp1220
aa(lp1221
g110
(g114
S'\x8f\xd3S\x8a\xf2e\xec?'
p1222
tp1223
Rp1224
ag110
(g114
S'\x8e\x88LWz\xb2\xec?'
p1225
tp1226
Rp1227
ag110
(g114
S'\xc2\x954MB\xa4\xee?'
p1228
tp1229
Rp1230
ag110
(g114
S'd\xbc\xde\xf7\xd0\x01\xee?'
p1231
tp1232
Rp1233
aa(lp1234
g110
(g114
S'\x1c\x99\x08e\xfd\xdd\xee?'
p1235
tp1236
Rp1237
ag110
(g114
S'\x8f\x10\xf7\t\x17\x0b\xef?'
p1238
tp1239
Rp1240
ag110
(g114
S'\x8e(WoD\xa8\xed?'
p1241
tp1242
Rp1243
ag110
(g114
S'\xb2h+R\xda\xd2\xee?'
p1244
tp1245
Rp1246
aa(lp1247
g110
(g114
S'\x82?t\x9a| \xeb?'
p1248
tp1249
Rp1250
ag110
(g114
S'\x91\n5\x91\xa2\xdc\xec?'
p1251
tp1252
Rp1253
ag110
(g114
S'\xacd8\xfa\x96\xdf\xed?'
p1254
tp1255
Rp1256
ag110
(g114
S'\x11\x06S@\x19\xd0\xed?'
p1257
tp1258
Rp1259
aa(lp1260
g110
(g114
S'\xa8<\xec\xd8+V\xe6?'
p1261
tp1262
Rp1263
ag110
(g114
S'\xa5b\x99\x87-k\xe6?'
p1264
tp1265
Rp1266
ag110
(g114
S'(eSz%\x00\xe6?'
p1267
tp1268
Rp1269
ag110
(g114
S'O\xe3T\xbe\x16\xbb\xe5?'
p1270
tp1271
Rp1272
aa(lp1273
g110
(g114
S'\x078\xef\x1b\x1dS\xe5?'
p1274
tp1275
Rp1276
ag110
(g114
S'\xd3\x08\xbb+\x96g\xe5?'
p1277
tp1278
Rp1279
ag110
(g114
S'\xaem\xc8smj\xe5?'
p1280
tp1281
Rp1282
ag110
(g114
S'q\xc9\x14XJn\xe5?'
p1283
tp1284
Rp1285
aa(lp1286
g110
(g114
S'9\xa6\x7f/\xa28\xed?'
p1287
tp1288
Rp1289
ag110
(g114
S'\x9f\xdb\xabF\xc4c\xee?'
p1290
tp1291
Rp1292
ag110
(g114
S'\xf0x\t\xecq\r\xef?'
p1293
tp1294
Rp1295
ag110
(g114
S'1\x08\x92kU\x19\xef?'
p1296
tp1297
Rp1298
aa(lp1299
g110
(g114
S'i\xfc\xcc\xb38\x11\xeb?'
p1300
tp1301
Rp1302
ag110
(g114
S'\xdc\x1f\xf5%\x1d\x99\xea?'
p1303
tp1304
Rp1305
ag110
(g114
S'\xb0\xd6\x1aIku\xe9?'
p1306
tp1307
Rp1308
ag110
(g114
S'\xdb6S\xcc,\\\xea?'
p1309
tp1310
Rp1311
aa(lp1312
g110
(g114
S'ij\x06%Y\xfb\xe0?'
p1313
tp1314
Rp1315
ag110
(g114
S'\x05\x19+\xe5\xb4\xf6\xe0?'
p1316
tp1317
Rp1318
ag110
(g114
S'\x98q\xd71[+\xe1?'
p1319
tp1320
Rp1321
ag110
(g114
S'\x19J\xf6\xd7"\xff\xe0?'
p1322
tp1323
Rp1324
aa(lp1325
g110
(g114
S' M;VQ\xa1\xec?'
p1326
tp1327
Rp1328
ag110
(g114
S'K\x03\x03\xfc\xc9>\xed?'
p1329
tp1330
Rp1331
ag110
(g114
S',p\xbf\n\xf9x\xed?'
p1332
tp1333
Rp1334
ag110
(g114
S'J\xb2\xc7g\x97D\xed?'
p1335
tp1336
Rp1337
aa(lp1338
g110
(g114
S'\xba\xe5\\\xd5Y\x99\xec?'
p1339
tp1340
Rp1341
ag110
(g114
S'\x07\xda7\xb2`\xac\xed?'
p1342
tp1343
Rp1344
ag110
(g114
S'\xb9"AO\xa0\xf4\xed?'
p1345
tp1346
Rp1347
ag110
(g114
S'\xe6\xb4\x8e\xf6a\xbd\xed?'
p1348
tp1349
Rp1350
aa(lp1351
g110
(g114
S"'\xbf\xbb8\x15\xb3\xea?"
p1352
tp1353
Rp1354
ag110
(g114
S'\n\xcd\xe0\xeb\x19\x9e\xe9?'
p1355
tp1356
Rp1357
ag110
(g114
S'\xa6i\x80q\x1a\\\xe9?'
p1358
tp1359
Rp1360
ag110
(g114
S'\x99\xc5R7X\x00\xe9?'
p1361
tp1362
Rp1363
aa(lp1364
g110
(g114
S'r>7d\x91^\xef?'
p1365
tp1366
Rp1367
ag110
(g114
S'S#4\xdc\xfd\xf1\xec?'
p1368
tp1369
Rp1370
ag110
(g114
S'pjs\xb5\x0f\xce\xeb?'
p1371
tp1372
Rp1373
ag110
(g114
S'V\xdc\x8e\x86\xa5I\xec?'
p1374
tp1375
Rp1376
aa(lp1377
g110
(g114
S'\xce\xb0\xb3\x1f1\x91\xed?'
p1378
tp1379
Rp1380
ag110
(g114
S"'\x9fo\x10\x11\xe9\xed?"
p1381
tp1382
Rp1383
ag110
(g114
S'(\xda\xd8\xa3$G\xed?'
p1384
tp1385
Rp1386
ag110
(g114
S'\x11\xbd\xd4\xf8\x07_\xee?'
p1387
tp1388
Rp1389
aa(lp1390
g110
(g114
S'z\x89\xa3G\xa8\x04\xeb?'
p1391
tp1392
Rp1393
ag110
(g114
S'\xf9\xa0\xa0\x8d\x1e\xe9\xea?'
p1394
tp1395
Rp1396
ag110
(g114
S'\xdb\xff\xe1\x03\x1d6\xea?'
p1397
tp1398
Rp1399
ag110
(g114
S'\\\x9c6\x7fsJ\xea?'
p1400
tp1401
Rp1402
aa(lp1403
g110
(g114
S'QKC\x11\xdaa\xee?'
p1404
tp1405
Rp1406
ag110
(g114
S'\xbdS\xd6\xcc!G\xeb?'
p1407
tp1408
Rp1409
ag110
(g114
S'`*\xee3\x99\x98\xe9?'
p1410
tp1411
Rp1412
ag110
(g114
S'\x0bI\xc6\t\x1f\x95\xe9?'
p1413
tp1414
Rp1415
aa(lp1416
g110
(g114
S'\xfa\xdc\xa6\x05^\xfe\xed?'
p1417
tp1418
Rp1419
ag110
(g114
S'\xbc\x07G\x0b\x05R\xed?'
p1420
tp1421
Rp1422
ag110
(g114
S'\xc8L\x83!\t\xec\xec?'
p1423
tp1424
Rp1425
ag110
(g114
S'\xa5\xff\xa0\xcc\x11\x89\xec?'
p1426
tp1427
Rp1428
aa(lp1429
g110
(g114
S'\xd4K\xc0m\x88|\xee?'
p1430
tp1431
Rp1432
ag110
(g114
S'\xe2\xc0\\\x91a\x19\xed?'
p1433
tp1434
Rp1435
ag110
(g114
S'\xcaRS9\x9d\xbd\xeb?'
p1436
tp1437
Rp1438
ag110
(g114
S'\x0e[",\x04\x9d\xeb?'
p1439
tp1440
Rp1441
aa(lp1442
g110
(g114
S'\x1a\xa8P8\x94\n\xec?'
p1443
tp1444
Rp1445
ag110
(g114
S'\xd2\xa7\x95V\x7f\xee\xe7?'
p1446
tp1447
Rp1448
ag110
(g114
S'Po\xd3\x16b\xae\xe6?'
p1449
tp1450
Rp1451
ag110
(g114
S'\xb7;\x00\xaf\x84\x81\xe6?'
p1452
tp1453
Rp1454
aa(lp1455
g110
(g114
S'\xc4\x9a\x7f\xd9\xda\xee\xee?'
p1456
tp1457
Rp1458
ag110
(g114
S'\xac\xa8\x96\xbb\xb1\xdf\xed?'
p1459
tp1460
Rp1461
ag110
(g114
S'\x10\x8caU\xa8\xc7\xec?'
p1462
tp1463
Rp1464
ag110
(g114
S'WJ\x91\x12u\x17\xed?'
p1465
tp1466
Rp1467
aasS'M'
p1468
(lp1469
(lp1470
F48.0
aF84.0
aF127.0
aF113.0
aa(lp1471
F54.0
aF63.0
aF92.0
aF76.0
aa(lp1472
F25.0
aF59.0
aF100.0
aF72.0
aa(lp1473
F34.0
aF38.0
aF49.0
aF43.0
aa(lp1474
F51.0
aF53.0
aF71.0
aF65.0
aa(lp1475
F69.0
aF101.0
aF135.0
aF120.0
aa(lp1476
F67.0
aF109.0
aF143.0
aF114.0
aa(lp1477
F102.0
aF108.0
aF146.0
aF132.0
aa(lp1478
F69.0
aF99.0
aF122.0
aF112.0
aa(lp1479
F91.0
aF96.0
aF127.0
aF116.0
aa(lp1480
F81.0
aF84.0
aF119.0
aF102.0
aa(lp1481
F97.0
aF117.0
aF142.0
aF138.0
aa(lp1482
F70.0
aF105.0
aF129.0
aF108.0
aa(lp1483
F100.0
aF105.0
aF152.0
aF127.0
aa(lp1484
F91.0
aF152.0
aF206.0
aF180.0
aa(lp1485
F83.0
aF93.0
aF129.0
aF113.0
aa(lp1486
F98.0
aF107.0
aF143.0
aF111.0
aa(lp1487
F108.0
aF111.0
aF153.0
aF136.0
aa(lp1488
F99.0
aF101.0
aF135.0
aF106.0
aa(lp1489
F92.0
aF101.0
aF138.0
aF102.0
aa(lp1490
F96.0
aF98.0
aF128.0
aF98.0
aa(lp1491
F94.0
aF95.0
aF130.0
aF117.0
aa(lp1492
F68.0
aF108.0
aF135.0
aF113.0
aa(lp1493
F90.0
aF98.0
aF133.0
aF99.0
aa(lp1494
F126251.0
aF140275.0
aF185098.0
aF163380.0
aa(lp1495
F2698.0
aF4470.0
aF4081.0
aF4577.0
aa(lp1496
F10388.0
aF11620.0
aF16093.0
aF14309.0
aa(lp1497
F5774.0
aF12411.0
aF16730.0
aF14950.0
aa(lp1498
F27494.0
aF57518.0
aF58291.0
aF86638.0
aa(lp1499
F70136.0
aF113633.0
aF135697.0
aF120085.0
aa(lp1500
F92382.0
aF174350.0
aF233065.0
aF207274.0
aa(lp1501
F870.0
aF1052.0
aF1439.0
aF1163.0
aa(lp1502
F2916.0
aF5152.0
aF5574.0
aF5492.0
aa(lp1503
F167.0
aF185.0
aF239.0
aF210.0
aa(lp1504
F614.0
aF689.0
aF942.0
aF814.0
aa(lp1505
F14701.0
aF30162.0
aF63037.0
aF55882.0
aa(lp1506
F107.0
aF221.0
aF333.0
aF244.0
aa(lp1507
F110502.0
aF232200.0
aF359399.0
aF275418.0
aa(lp1508
F788.0
aF1566.0
aF2870.0
aF1708.0
aa(lp1509
F1515.0
aF2973.0
aF3436.0
aF3305.0
aa(lp1510
F289.0
aF372.0
aF481.0
aF405.0
aa(lp1511
F29.0
aF40.0
aF53.0
aF50.0
aa(lp1512
F69.0
aF77.0
aF119.0
aF94.0
aa(lp1513
F71.0
aF108.0
aF129.0
aF110.0
aa(lp1514
F88.0
aF97.0
aF140.0
aF122.0
aa(lp1515
F95.0
aF97.0
aF132.0
aF97.0
aa(lp1516
F103.0
aF111.0
aF150.0
aF113.0
aa(lp1517
F72.0
aF109.0
aF157.0
aF138.0
aa(lp1518
F101.0
aF114.0
aF161.0
aF112.0
aa(lp1519
F100.0
aF102.0
aF141.0
aF104.0
aa(lp1520
F52.0
aF93.0
aF125.0
aF97.0
aa(lp1521
F90.0
aF110.0
aF163.0
aF154.0
aa(lp1522
F92.0
aF101.0
aF136.0
aF118.0
aa(lp1523
F65.0
aF71.0
aF106.0
aF92.0
aa(lp1524
F60.0
aF105.0
aF114.0
aF108.0
aa(lp1525
F102.0
aF103.0
aF132.0
aF107.0
aa(lp1526
F89.0
aF90.0
aF123.0
aF113.0
aa(lp1527
F89.0
aF108.0
aF141.0
aF135.0
aa(lp1528
F82.0
aF94.0
aF151.0
aF117.0
aa(lp1529
F85.0
aF102.0
aF145.0
aF138.0
aa(lp1530
F89.0
aF100.0
aF125.0
aF114.0
aa(lp1531
F93.0
aF120.0
aF168.0
aF134.0
aa(lp1532
F100.0
aF102.0
aF137.0
aF123.0
aa(lp1533
F98.0
aF100.0
aF128.0
aF103.0
aa(lp1534
F91.0
aF94.0
aF126.0
aF112.0
aa(lp1535
F70.0
aF75.0
aF110.0
aF86.0
aa(lp1536
F92.0
aF113.0
aF150.0
aF136.0
aa(lp1537
F98.0
aF100.0
aF104.0
aF102.0
aa(lp1538
F90.0
aF108.0
aF138.0
aF124.0
aa(lp1539
F99.0
aF106.0
aF133.0
aF117.0
aa(lp1540
F56.0
aF56.0
aF76.0
aF58.0
aa(lp1541
F28.0
aF38.0
aF58.0
aF49.0
aa(lp1542
F45.0
aF52.0
aF74.0
aF67.0
aa(lp1543
F36.0
aF39.0
aF58.0
aF46.0
aa(lp1544
F67.0
aF83.0
aF115.0
aF84.0
aa(lp1545
F53.0
aF55.0
aF66.0
aF60.0
aa(lp1546
F53.0
aF57.0
aF66.0
aF63.0
aa(lp1547
F35.0
aF40.0
aF51.0
aF46.0
aa(lp1548
F65.0
aF115.0
aF162.0
aF135.0
aa(lp1549
F73.0
aF80.0
aF108.0
aF91.0
aa(lp1550
F84.0
aF116.0
aF162.0
aF130.0
aa(lp1551
F65.0
aF121.0
aF149.0
aF142.0
aa(lp1552
F102.0
aF104.0
aF145.0
aF106.0
aa(lp1553
F70.0
aF71.0
aF93.0
aF85.0
aa(lp1554
F93.0
aF101.0
aF138.0
aF98.0
aa(lp1555
F16.0
aF31.0
aF39.0
aF36.0
aa(lp1556
F101.0
aF100.0
aF141.0
aF106.0
aa(lp1557
F46.0
aF49.0
aF64.0
aF55.0
aa(lp1558
F72.0
aF82.0
aF94.0
aF95.0
aa(lp1559
F17.0
aF17.0
aF17.0
aF17.0
aa(lp1560
F35.0
aF37.0
aF43.0
aF41.0
aa(lp1561
F65.0
aF83.0
aF122.0
aF98.0
aa(lp1562
F9.0
aF9.0
aF8.0
aF9.0
aa(lp1563
F37.0
aF41.0
aF49.0
aF45.0
aa(lp1564
F38.0
aF43.0
aF53.0
aF47.0
aa(lp1565
F72.0
aF85.0
aF119.0
aF105.0
aa(lp1566
F98.0
aF116.0
aF165.0
aF148.0
aa(lp1567
F32.0
aF56.0
aF84.0
aF59.0
aa(lp1568
F80.0
aF83.0
aF113.0
aF103.0
aa(lp1569
F54.0
aF93.0
aF129.0
aF98.0
aa(lp1570
F76.0
aF81.0
aF118.0
aF109.0
aa(lp1571
F93.0
aF106.0
aF152.0
aF130.0
aa(lp1572
F59.0
aF100.0
aF147.0
aF135.0
aa(lp1573
F30.0
aF48.0
aF66.0
aF50.0
aasS'Q'
p1574
(lp1575
(lp1576
F0.028704242825038594
aF0.051176876271303025
aF0.0049090744270297365
aF0.005518283954555487
aa(lp1577
F0.03220821191053598
aF0.01830341969000263
aF0.02380886042322477
aF0.018397139200378696
aa(lp1578
F0.017592433826243307
aF0.026229383327201747
aF0.01935977769579512
aF0.021344740097879462
aa(lp1579
F0.027685216477265313
aF0.010390896289996227
aF0.006823356731631817
aF0.007513190900175141
aa(lp1580
F0.019578871808009865
aF0.04326349000129477
aF0.004753557118119859
aF0.0049580070716517734
aa(lp1581
F0.024087569223197904
aF0.04779418431434648
aF0.004965090204450444
aF0.005992073455428956
aa(lp1582
F0.019191929612499957
aF0.04771237212705251
aF0.00524573660921435
aF0.04529773409606908
aa(lp1583
F0.04741825396856867
aF0.04349863872997144
aF0.004652858967197071
aF0.005230944167543679
aa(lp1584
F0.015653504759112667
aF0.03560739184360509
aF0.003962477127132518
aF0.004409433736853441
aa(lp1585
F0.09025080949040563
aF0.08322354606100446
aF0.008996565264202127
aF0.010379234545694303
aa(lp1586
F0.09183908583636267
aF0.08665154828568801
aF0.009245245881643674
aF0.009639302274887716
aa(lp1587
F0.07311607847719778
aF0.07031732735379832
aF0.013399360311374469
aF0.011517173641422698
aa(lp1588
F0.014795593653928447
aF0.044587170727142494
aF0.005236882714928932
aF0.042665700155703805
aa(lp1589
F0.06964834266239515
aF0.08439457214047502
aF0.008227606150243396
aF0.011090202182342745
aa(lp1590
F0.041785871049209534
aF0.007448623172152388
aF0.005824602387252793
aF0.006706684892244209
aa(lp1591
F0.05454167402952667
aF0.06308618526225741
aF0.008865737555250906
aF0.009753777519080568
aa(lp1592
F0.044195593201191166
aF0.06995311151946616
aF0.007512408589391858
aF0.0671412369762939
aa(lp1593
F0.025123539034851573
aF0.056678128462021755
aF0.006488091786045571
aF0.007019600185160773
aa(lp1594
F0.03007157704618277
aF0.06947126792217254
aF0.007775793460631632
aF0.06463694762471937
aa(lp1595
F0.0487203171698912
aF0.07594920946571922
aF0.008152195891857157
aF0.07578161199547453
aa(lp1596
F0.03922885380685592
aF0.09203715130273957
aF0.010418383664898234
aF0.09379093773394843
aa(lp1597
F0.035135392464617485
aF0.08385428846047104
aF0.009087261753301679
aF0.010661554816900932
aa(lp1598
F0.01592619135468683
aF0.04248194931423555
aF0.004750663375678007
aF0.03966435691322792
aa(lp1599
F0.044207143184539034
aF0.06937487159821057
aF0.0073754264361849025
aF0.06778367511534873
aa(lp1600
F0.02557239974731592
aF0.015514049409097279
aF0.006503479348210343
aF0.006500389640825226
aa(lp1601
F0.011282783455246756
aF0.029734069143924673
aF0.040811743133298016
aF0.029250804058825533
aa(lp1602
F0.03049416717395893
aF0.037685178223986635
aF0.006794171796747998
aF0.007417875125507675
aa(lp1603
F0.05819956735572568
aF0.011857440171226596
aF0.008221427098982827
aF0.010656159971905851
aa(lp1604
F0.07156696933630385
aF0.012838314855484216
aF0.016267487634612013
aF0.0067818541177560995
aa(lp1605
F0.008458115363955375
aF0.02295078292031391
aF0.0184115289959782
aF0.021726751748901256
aa(lp1606
F0.013127762817295245
aF0.026197601142191385
aF0.024909025021524717
aF0.01742849561969123
aa(lp1607
F0.062041978028213984
aF0.02865168786884948
aF0.013950099774510274
aF0.02471641596932306
aa(lp1608
F0.01610084452041331
aF0.044348875840922924
aF0.050127365806936525
aF0.028189884536259476
aa(lp1609
F0.037284262087174176
aF0.02497540553954119
aF0.04852454769175093
aF0.037877354335183834
aa(lp1610
F0.04036260071190791
aF0.023485784304691136
aF0.012525069558649429
aF0.012782420252467803
aa(lp1611
F0.09484619664945862
aF0.01777113215930121
aF0.007857510897543878
aF0.010538905976483732
aa(lp1612
F0.028655352363729018
aF0.07103374284645621
aF0.04293152800172035
aF0.06281604212985088
aa(lp1613
F0.08335614595812237
aF0.014129513007170994
aF0.00894330153153177
aF0.015050031080350326
aa(lp1614
F0.0289022316325862
aF0.05674674651597074
aF0.012810748156891504
aF0.05146927149333876
aa(lp1615
F0.019642517776059885
aF0.05012842423514927
aF0.0471417237071233
aF0.034333360640675964
aa(lp1616
F0.0722631297714117
aF0.01838184132944461
aF0.013802645307271507
aF0.020086472035226427
aa(lp1617
F0.06122528213423249
aF0.01014659718859987
aF0.006973074420701304
aF0.006789548831858621
aa(lp1618
F0.048660532954584154
aF0.03152280718068974
aF0.02606048567312693
aF0.036689388143050776
aa(lp1619
F0.018079158538246973
aF0.0650545637307705
aF0.007859919336404718
aF0.06494688150605424
aa(lp1620
F0.10701333627131787
aF0.1616256102615667
aF0.015580821623636318
aF0.016847317124096345
aa(lp1621
F0.09190801216810598
aF0.16161616018962288
aF0.023865953482238418
aF0.21137495922030688
aa(lp1622
F0.0562939767550059
aF0.08973597501921413
aF0.009586573755186584
aF0.08943029182942358
aa(lp1623
F0.04191367012984626
aF0.07489850051453391
aF0.007233394415518471
aF0.008160456757588112
aa(lp1624
F0.07120018251695899
aF0.10719131026655877
aF0.010984546345544511
aF0.11176680189015485
aa(lp1625
F0.141207055769643
aF0.14281335752625293
aF0.01502822913028168
aF0.14017242013808406
aa(lp1626
F0.04629186154614836
aF0.10730432405460419
aF0.011555765168223096
aF0.1020670700407509
aa(lp1627
F0.0769235056336642
aF0.09903983555018049
aF0.01011765474515489
aF0.010018998349205097
aa(lp1628
F0.038805062741484174
aF0.0217533959630882
aF0.013766963259947806
aF0.015807971304789562
aa(lp1629
F0.1318574174107626
aF0.2018569848838292
aF0.018848925733513648
aF0.023185956110455916
aa(lp1630
F0.030756356768392615
aF0.07635236564024832
aF0.07744565746962837
aF0.07509042105976772
aa(lp1631
F0.041257593938513894
aF0.0976647349850789
aF0.011446706676237076
aF0.09476775202400481
aa(lp1632
F0.09186211458760837
aF0.21397068758751547
aF0.024431168501828946
aF0.023931450910281794
aa(lp1633
F0.14146535692380874
aF0.021576852199109747
aF0.016757514226335687
aF0.015016915147956934
aa(lp1634
F0.07864913831250314
aF0.11414173388312125
aF0.009380519056902448
aF0.012450742999928606
aa(lp1635
F0.10841162633726226
aF0.022785159249078778
aF0.014230251356960365
aF0.014018249899270785
aa(lp1636
F0.0745498612952331
aF0.023166145163553108
aF0.018653711698355842
aF0.02010360291468197
aa(lp1637
F0.093765345696202
aF0.01650681924803483
aF0.010575179586771349
aF0.015120148349590391
aa(lp1638
F0.0564579708906304
aF0.134140062292819
aF0.014648824111489009
aF0.016687671185972728
aa(lp1639
F0.04599755439362931
aF0.10604145018730579
aF0.011529453392952384
aF0.10300678404418542
aa(lp1640
F0.07159307332480183
aF0.16317162423549939
aF0.017711167101275294
aF0.018780330089085008
aa(lp1641
F0.2905748613752421
aF0.11047415902661656
aF0.05358912461146743
aF0.1524889746431396
aa(lp1642
F0.07790238410462458
aF0.016846936532961578
aF0.01208966152901608
aF0.013567887037651391
aa(lp1643
F0.04406161001715637
aF0.10268529401872921
aF0.10989917272260914
aF0.10327403752180998
aa(lp1644
F0.06317503951659209
aF0.13952550712847459
aF0.01591373871351081
aF0.017555924523836915
aa(lp1645
F0.10531778974362296
aF0.13770986986006478
aF0.030386708652454603
aF0.03104726313891458
aa(lp1646
F0.03489231263118478
aF0.08605010506837084
aF0.009516824753491485
aF0.08278964673085876
aa(lp1647
F0.040266977796389346
aF0.06944538479950828
aF0.006270359699027031
aF0.006937672197169917
aa(lp1648
F0.03407790349043425
aF0.05055870332484037
aF0.005136106595110677
aF0.005678923070227701
aa(lp1649
F0.055379684919026326
aF0.01162499119956016
aF0.00660228513348779
aF0.008544890894101572
aa(lp1650
F0.03162144406781162
aF0.06803470266709846
aF0.007487689721575151
aF0.0672655766269381
aa(lp1651
F0.023105763828046993
aF0.014309330653816241
aF0.01447690790903639
aF0.0214253079351481
aa(lp1652
F0.022806759740630247
aF0.010461852270840379
aF0.007349265539148762
aF0.008602388232556206
aa(lp1653
F0.026546902832513562
aF0.007058540336272047
aF0.0053123165237097016
aF0.005896767670874236
aa(lp1654
F0.039598721048223165
aF0.0624456012656052
aF0.007182025167332322
aF0.00920241912069378
aa(lp1655
F0.023605435860340262
aF0.013195136341733325
aF0.017773565809452788
aF0.020592950985406536
aa(lp1656
F0.09182583090056025
aF0.015053773026985488
aF0.007454593045849617
aF0.012367702291487426
aa(lp1657
F0.03965269797074405
aF0.007870616640432855
aF0.0061346577611382964
aF0.005433058018005586
aa(lp1658
F0.07699039147193326
aF0.18099850530264086
aF0.018890578831918955
aF0.1772738561323336
aa(lp1659
F0.04733181641570051
aF0.109718523125899
aF0.012642341382013682
aF0.014250581153613063
aa(lp1660
F0.06766387787699009
aF0.04226765432163592
aF0.0248128782755268
aF0.11631170777313668
aa(lp1661
F0.03335502604652421
aF0.0472876326070141
aF0.06108047173341922
aF0.04107865053924438
aa(lp1662
F0.07924122969095801
aF0.18996311423366058
aF0.020438912657821544
aF0.17841988352763452
aa(lp1663
F0.07341991918553402
aF0.04616299566683647
aF0.030895589050954846
aF0.0431701058928627
aa(lp1664
F0.1022000177941466
aF0.03346022330917741
aF0.0309213103949679
aF0.028214822169705996
aa(lp1665
F0.0017788159312280742
aF0.001136323394077844
aF0.0009120777481544424
aF0.0008739557971972388
aa(lp1666
F0.022270618818974477
aF0.012256152197712224
aF0.009612081146905328
aF0.012586153800835942
aa(lp1667
F0.11165100269147772
aF0.013200996347969323
aF0.007406851813943025
aF0.010336454001031201
aa(lp1668
F0.000773272417175565
aF0.001285042745097011
aF0.013957127060371726
aF0.0002395611688605985
aa(lp1669
F0.023751974072665973
aF0.008067069059416076
aF0.006340771711852752
aF0.006611837396975953
aa(lp1670
F0.05425689200336795
aF0.01699019598218936
aF0.013820809250550571
aF0.015190111332044244
aa(lp1671
F0.031188629879994434
aF0.04247484047732414
aF0.00443548978573898
aF0.005314408410864058
aa(lp1672
F0.04343810428633892
aF0.0732318757882695
aF0.007350007038697637
aF0.008502813185382404
aa(lp1673
F0.03038594839158426
aF0.08150568385156262
aF0.014749087298113625
aF0.07843755895129005
aa(lp1674
F0.0287928954971182
aF0.06480826592251622
aF0.007008617497128605
aF0.007469330647013153
aa(lp1675
F0.024971148717265367
aF0.05239671294061725
aF0.005385949221788755
aF0.048955381550154865
aa(lp1676
F0.06306502713711468
aF0.059320499981920974
aF0.005884523433046592
aF0.005947358973055996
aa(lp1677
F0.04722977101588277
aF0.06999405108333782
aF0.006992851480801655
aF0.008166171465363562
aa(lp1678
F0.03138102506141914
aF0.057936365212362846
aF0.005536282842923323
aF0.006330842088513066
aa(lp1679
F0.042732998198753876
aF0.09831181357580947
aF0.010167194669185727
aF0.0909932472970632
aasS'P'
p1680
(lp1681
(lp1682
F0.0028249980186873433
aF0.0018055365619641254
aF0.0018165852389517398
aF0.0018329242407057124
aa(lp1683
F0.003678840314339735
aF0.003046607447879062
aF0.0011620919588651636
aF0.0017209183168012416
aa(lp1684
F0.004920608686400152
aF0.002778382402022863
aF0.0012097840480875899
aF0.0017455797942592158
aa(lp1685
F0.0030758555764289967
aF0.0019444813360870678
aF0.0017028006895600802
aF0.001890368273114916
aa(lp1686
F0.007431198553196736
aF0.006879814957997337
aF0.005533879962136188
aF0.0063876719644762785
aa(lp1687
F0.0099555604086989
aF0.007337110248522712
aF0.006361956220142255
aF0.006339990754877626
aa(lp1688
F0.013180703765452486
aF0.008047899525200632
aF0.006809772291015283
aF0.006550219327954108
aa(lp1689
F0.008573242281323721
aF0.00771940334570748
aF0.006509628475611138
aF0.006880176168978243
aa(lp1690
F0.018264432566193915
aF0.01386789301012115
aF0.012258436951483435
aF0.013142634741571416
aa(lp1691
F0.01038661705898663
aF0.0095032508894197
aF0.007687494602155497
aF0.007458537220660936
aa(lp1692
F0.002514076453892699
aF0.001687792440967603
aF0.0013075490266351065
aF0.0019754699533123792
aa(lp1693
F0.0013953290776732145
aF0.0007820596029318016
aF0.00011875980372497966
aF0.0006483539031688742
aa(lp1694
F0.022544224962396962
aF0.014750753100901532
aF0.012460572720290882
aF0.013026377560673716
aa(lp1695
F0.0021390673497989733
aF0.0017048802392706144
aF0.0018847566695462748
aF0.000939988114659975
aa(lp1696
F0.000936488638819657
aF0.001365235624270683
aF0.0009581793016867775
aF0.0008941393528460606
aa(lp1697
F0.003446493916579369
aF0.0013286834803594668
aF0.0012114843755688166
aF0.0014220482086777552
aa(lp1698
F0.010027899350720418
aF0.0069684543201031235
aF0.005981489875681508
aF0.005089058029090051
aa(lp1699
F0.006552027981185021
aF0.005710314149472663
aF0.004324994233343156
aF0.004686383754216915
aa(lp1700
F0.008688584175340745
aF0.007413976312062808
aF0.005746292649872912
aF0.0056835011797226375
aa(lp1701
F0.00800067379040299
aF0.005056306658044315
aF0.004070188209929756
aF0.002879959593207226
aa(lp1702
F0.00924130613561318
aF0.0074179338533739364
aF0.005613436998144728
aF0.0046381226387884195
aa(lp1703
F0.005668009248482951
aF0.0038541820981402193
aF0.0030432722713351654
aF0.0028102166706224004
aa(lp1704
F0.01963376781091914
aF0.01356922762764653
aF0.011788684709201584
aF0.012541920019186366
aa(lp1705
F0.01012233217631965
aF0.006748247318275471
aF0.00591673464209178
aF0.004870143996078611
aa(lp1706
F0.011215604533317106
aF0.009354474985395494
aF0.007471535178180392
aF0.008624515878115108
aa(lp1707
F0.02876562744611867
aF0.020891045288044138
aF0.013197089200901273
aF0.01995164073746325
aa(lp1708
F0.0032831990037917383
aF0.002610792538221247
aF0.0023463462215357594
aF0.002616120089632712
aa(lp1709
F0.0005495695528454188
aF0.00047167599169678905
aF0.0003834054263639304
aF0.0002834341681363658
aa(lp1710
F0.0004548875044111438
aF0.0005855133280037524
aF2.0226869605050362e-05
aF0.0025883424224601593
aa(lp1711
F0.023765617003914212
aF0.01710896300159072
aF0.013590113275882318
aF0.01613554977148597
aa(lp1712
F0.017765407644417384
aF0.011409853971424824
aF0.007336505070407153
aF0.008984692111415738
aa(lp1713
F0.0019000906808646439
aF0.0016953634948232966
aF0.001535733992093433
aF0.00041363181466518186
aa(lp1714
F0.02644658777430057
aF0.018171149873621457
aF0.01036384448828082
aF0.014161701461237875
aa(lp1715
F0.011220608431473348
aF0.00839389230526568
aF0.002819514187647073
aF0.004751927723872245
aa(lp1716
F0.013321574841326208
aF0.010584248443951614
aF0.00824690721848623
aF0.008962440060135626
aa(lp1717
F0.00014509202362307592
aF0.00011287854947586621
aF0.0008403181621349094
aF0.0005759335267374733
aa(lp1718
F0.028111856406069093
aF0.01786297557136293
aF0.011466342727799509
aF0.015619085512634539
aa(lp1719
F0.0004961583906358246
aF0.0007517842485642569
aF0.0011712784311958206
aF0.0002261834824665685
aa(lp1720
F0.007940584915622308
aF0.005131901883030289
aF0.002854356626692784
aF0.0038793483652775134
aa(lp1721
F0.021881541848154235
aF0.014286045796785997
aF0.008395293443178334
aF0.011619614960315607
aa(lp1722
F0.0012046624330056199
aF0.001474267353190512
aF0.0013908946330767284
aF0.0005890793657688815
aa(lp1723
F0.0010786650913421436
aF0.0011027665576107384
aF0.0011023472845369156
aF0.001892777163084139
aa(lp1724
F0.009365412738007109
aF0.006954539447558186
aF0.0032341947683179927
aF0.004073786428610593
aa(lp1725
F0.038100232627024284
aF0.024811499960527946
aF0.022317838598095552
aF0.02248400446674685
aa(lp1726
F0.009502698367939698
aF0.005449147346586223
aF0.005433890517388668
aF0.006743017646122311
aa(lp1727
F0.004413917111297084
aF0.0024204767733757276
aF0.001943452758429483
aF0.0012713519675737353
aa(lp1728
F0.0112661455972046
aF0.007074791729178388
aF0.006034327996579431
aF0.0045471676248518885
aa(lp1729
F0.007730377097918704
aF0.006349806355069834
aF0.006135978577556004
aF0.006764009053566561
aa(lp1730
F0.008738682143113304
aF0.005627906231582468
aF0.005118339787202618
aF0.002884076264439308
aa(lp1731
F0.007534013388412286
aF0.005098394475082562
aF0.00438396923076894
aF0.0028184119129493514
aa(lp1732
F0.02397284611397205
aF0.014719618975044084
aF0.012553781781053694
aF0.01176935795664028
aa(lp1733
F0.001220734807717231
aF0.0007745178907753872
aF0.000602536960370678
aF0.0010438152172424589
aa(lp1734
F0.00683220269402332
aF0.00430369749567348
aF0.002356559071270211
aF0.0024921573939324913
aa(lp1735
F0.007377055500921111
aF0.0037413349774388606
aF0.004379932378566894
aF0.003916801229554277
aa(lp1736
F0.03011716581583468
aF0.020707372908162835
aF0.01279109720178327
aF0.018722840671948175
aa(lp1737
F0.019398778237931704
aF0.017271045758672054
aF0.013630164761814252
aF0.014292077924119458
aa(lp1738
F0.0021301656789367864
aF0.0012559665909011686
aF0.0007383107793903071
aF0.001290366942928841
aa(lp1739
F0.0014371564730928847
aF0.0014378218769169986
aF0.001070391031882617
aF0.0024471608162699543
aa(lp1740
F0.0018283353763008474
aF0.0007014291064155159
aF0.0015300146375680165
aF0.0006825363647562715
aa(lp1741
F0.0017536240563989264
aF0.00041285165531033957
aF0.0009053427366255605
aF0.0021680620435503947
aa(lp1742
F0.0060752224159426
aF0.0042362751123140975
aF0.0032452209987447055
aF0.004291034566781712
aa(lp1743
F0.0013880619831187992
aF0.0009156565612133575
aF0.0015274833903110084
aF0.0006043313420533528
aa(lp1744
F0.012153550101977452
aF0.009382607101398509
aF0.0075131784616513176
aF0.008178826140132245
aa(lp1745
F0.015884417112257812
aF0.014000229730660887
aF0.011001218868688312
aF0.011515941569522303
aa(lp1746
F0.016003137801646857
aF0.01369579808576403
aF0.011330963257860907
aF0.01292354559285782
aa(lp1747
F0.001688734900576761
aF0.0009299568720283246
aF0.0020733579906757923
aF0.0002779892975901607
aa(lp1748
F0.0020414208091779867
aF0.0005205541870680937
aF0.0005459612079932868
aF0.0005487940912003071
aa(lp1749
F0.0181199341417898
aF0.016316809756374697
aF0.005841509523129785
aF0.01317907066706476
aa(lp1750
F0.036804776069823464
aF0.026996474072824215
aF0.022523188294051706
aF0.02424661961384362
aa(lp1751
F0.0013042034151965424
aF0.0007631740893558281
aF0.0003011351987075365
aF0.000472364942065744
aa(lp1752
F0.005592465563895398
aF0.0037308519929898035
aF0.002885477454662686
aF0.0021043386269082825
aa(lp1753
F0.0020774651740084
aF0.001256072682059339
aF0.001812798015583284
aF0.002050991697695178
aa(lp1754
F0.006097541006446813
aF0.00406352924974215
aF0.003616638205728051
aF0.003883283447118977
aa(lp1755
F0.001174525450887207
aF0.0002570275451045855
aF0.0008425090700696804
aF0.00046052125104326433
aa(lp1756
F0.008372690124882029
aF0.0044677018237188814
aF0.0037042030632828925
aF0.0028546003783003803
aa(lp1757
F0.030923557313686123
aF0.026719208340317255
aF0.0192509731888249
aF0.020992046401056962
aa(lp1758
F0.022123703661283686
aF0.018635486858528456
aF0.015301582627370466
aF0.015816423754522486
aa(lp1759
F0.006637275253431281
aF0.0054200021731035586
aF0.004771070869775993
aF0.005019331906987582
aa(lp1760
F0.0015106823895039425
aF0.0012822322491082103
aF0.0005361835364386682
aF0.00027717469299963406
aa(lp1761
F0.011628359054192192
aF0.009153055260507853
aF0.004666305041505161
aF0.006148902216508094
aa(lp1762
F4.758722663207706e-05
aF0.0003317059076307083
aF0.0019670808010421605
aF0.00033520915773503233
aa(lp1763
F0.001236202763796951
aF0.0012432794748244783
aF0.0006878943266831795
aF0.001902339935953809
aa(lp1764
F0.006430790925659437
aF0.0045372576194116585
aF0.004514266723906884
aF0.0024323070472123762
aa(lp1765
F0.018629901537349964
aF0.016411105337049224
aF0.012823591348426921
aF0.013856767583078213
aa(lp1766
F0.00438931960973428
aF0.0022552615315303308
aF0.0010369374870827135
aF0.0007241143780192407
aa(lp1767
F0.023536289541024116
aF0.014383107255266668
aF0.008116186891541975
aF0.010759840801649588
aa(lp1768
F0.006024214909060352
aF0.0040572302329429655
aF0.0032310672857018526
aF0.002331040786402634
aa(lp1769
F0.0041520636899385465
aF0.0019777435077180192
aF0.0005722516247991824
aF0.00038566845775796666
aa(lp1770
F0.0027043338501967634
aF0.0012468336147365901
aF0.00039117050985300474
aF0.0010558654713764522
aa(lp1771
F0.05185457931107352
aF0.05225276643978906
aF0.05238988477640591
aF0.052384549764445766
aa(lp1772
F0.028897383271691505
aF0.02505413370206009
aF0.019928173511718692
aF0.020622106160359734
aa(lp1773
F0.001339583203113961
aF0.0011152266729206456
aF0.002480094302203372
aF0.001177209919823199
aa(lp1774
F0.06353187436650284
aF0.06331433480228117
aF0.05985188531683374
aF0.0638106146329391
aa(lp1775
F0.014911753566075788
aF0.012584033878179047
aF0.010719061457191004
aF0.012091113615998676
aa(lp1776
F0.014173765052702184
aF0.011260699426988992
aF0.009372528579872499
aF0.009696652360896531
aa(lp1777
F0.0065856766369455574
aF0.005361960006820338
aF0.0044558052870121104
aF0.003922054627120535
aa(lp1778
F0.0007160575314610526
aF0.0016772231963375311
aF0.0014954649143680394
aF0.0012538235766514753
aa(lp1779
F0.023439637241337415
aF0.013189660214215193
aF0.00872005582358373
aF0.010614707517340735
aa(lp1780
F0.005947602794739858
aF0.004923262617110165
aF0.004013011571026888
aF0.004607127305277011
aa(lp1781
F0.007568580155007425
aF0.004837785660458269
aF0.00420035037543714
aF0.003664528178039167
aa(lp1782
F0.0030794308919932763
aF0.002196775076070827
aF0.002108807974007915
aF0.0030353613918890745
aa(lp1783
F0.003655765790343308
aF0.0018793282551033408
aF0.0017729430593257408
aF0.001873771572605324
aa(lp1784
F0.003154149190153147
aF0.002030537535652371
aF0.002116243072877424
aF0.001984231422314658
aa(lp1785
F0.015316602473067362
aF0.00868219674022053
aF0.007899110729169231
aF0.006941886804885436
aasS'data'
p1786
(lp1787
S'Dishwasher:Ireland'
p1788
aS'Vacuum_Cleaner:Brazil'
p1789
aS'Vacuum_Cleaner:Latin America'
p1790
aS'Vacuum_Cleaner:Uruguay'
p1791
aS'Tumble_Drier:Saudi Arabia'
p1792
aS'Air_conditioner:Bahrain'
p1793
aS'Air_conditioner:United Arab Emirates'
p1794
aS'Air_conditioner:Qatar'
p1795
aS'Air_conditioner:Saudi Arabia'
p1796
aS'Color_TV:Turkey'
p1797
aS'Color_TV:Turkmenistan'
p1798
aS'Color_TV:Algeria'
p1799
aS'Color_TV:Eastern Europe'
p1800
aS'Color_TV:Kazakhstan'
p1801
aS'Color_TV:Azerbaijan'
p1802
aS'Color_TV:Uzbekistan'
p1803
aS'Color_TV:Malaysia'
p1804
aS'Color_TV:Jordan'
p1805
aS'Color_TV:Chile'
p1806
aS'Color_TV:Thailand'
p1807
aS'Color_TV:Argentina'
p1808
aS'Color_TV:Venezuela'
p1809
aS'Color_TV:Russia'
p1810
aS'Color_TV:Latin America'
p1811
aS'Sattelite_TV:G7'
p1812
aS'Sattelite_TV:Australia'
p1813
aS'Sattelite_TV:Iran'
p1814
aS'Sattelite_TV:South Africa'
p1815
aS'Sattelite_TV:Eastern Europe'
p1816
aS'Sattelite_TV:EU'
p1817
aS'Sattelite_TV:G8'
p1818
aS'Sattelite_TV:Uzbekistan'
p1819
aS'Sattelite_TV:Australasia'
p1820
aS'Sattelite_TV:Guatemala'
p1821
aS'Sattelite_TV:Belarus'
p1822
aS'Sattelite_TV:Mercosur'
p1823
aS'Sattelite_TV:Kenya'
p1824
aS'Sattelite_TV:BRIC'
p1825
aS'Sattelite_TV:Thailand'
p1826
aS'Sattelite_TV:Argentina'
p1827
aS'Sattelite_TV:Kazakhstan'
p1828
aS'Freezer:Bulgaria'
p1829
aS'Mobile_Telephone:Uzbekistan - % of households'
p1830
aS'Mobile_Telephone:United Arab Emirates - % of households'
p1831
aS'Mobile_Telephone:Tunisia - % of households'
p1832
aS'Mobile_Telephone:Hungary - % of households'
p1833
aS'Mobile_Telephone:Qatar - % of households'
p1834
aS'Mobile_Telephone:North America - % of households'
p1835
aS'Mobile_Telephone:Russia - % of households'
p1836
aS'Mobile_Telephone:Kuwait - % of households'
p1837
aS'Mobile_Telephone:India - % of households'
p1838
aS'Mobile_Telephone:Middle East and Africa - % of households'
p1839
aS'Mobile_Telephone:Canada - % of households'
p1840
aS'Mobile_Telephone:Kenya - % of households'
p1841
aS'Mobile_Telephone:Philippines - % of households'
p1842
aS'Mobile_Telephone:Saudi Arabia - % of households'
p1843
aS'Mobile_Telephone:Romania - % of households'
p1844
aS'Mobile_Telephone:Vietnam - % of households'
p1845
aS'Mobile_Telephone:Bosnia-Herzegovina - % of households'
p1846
aS'Mobile_Telephone:Montenegro - % of households'
p1847
aS'Mobile_Telephone:Western Europe - % of households'
p1848
aS'Mobile_Telephone:Croatia - % of households'
p1849
aS'Mobile_Telephone:Estonia - % of households'
p1850
aS'Mobile_Telephone:Australasia - % of households'
p1851
aS'Mobile_Telephone:Kazakhstan - % of households'
p1852
aS'Mobile_Telephone:Latvia - % of households'
p1853
aS'Mobile_Telephone:Malaysia - % of households'
p1854
aS'Mobile_Telephone:Australia - % of households'
p1855
aS'Mobile_Telephone:Azerbaijan - % of households'
p1856
aS'Mobile_Telephone:Belgium - % of households'
p1857
aS'Hi-Fi_Stereo:Brazil'
p1858
aS'Hi-Fi_Stereo:Hungary'
p1859
aS'Hi-Fi_Stereo:Saudi Arabia'
p1860
aS'Hi-Fi_Stereo:Montenegro'
p1861
aS'Hi-Fi_Stereo:Chile'
p1862
aS'Video_Camera:United Arab Emirates'
p1863
aS'Video_Camera:Saudi Arabia'
p1864
aS'Video_Camera:Israel'
p1865
aS'Washing_Machine:Argentina'
p1866
aS'Washing_Machine:Venezuela'
p1867
aS'Washing_Machine:Costa Rica'
p1868
aS'Washing_Machine:Chile'
p1869
aS'DVD_Player:USA'
p1870
aS'DVD_Player:Singapore'
p1871
aS'DVD_Player:United Arab Emirates'
p1872
aS'DVD_Player:Philippines'
p1873
aS'DVD_Player:North America'
p1874
aS'DVD_Player:China'
p1875
aS'DVD_Player:Japan'
p1876
aS'Video_Game_Console:Tunisia'
p1877
aS'Video_Game_Console:Kuwait'
p1878
aS'Video_Game_Console:Qatar'
p1879
aS'Video_Game_Console:Ecuador'
p1880
aS'Video_Game_Console:United Arab Emirates'
p1881
aS'Microwave_Oven:Romania'
p1882
aS'Microwave_Oven:Singapore'
p1883
aS'Microwave_Oven:United Arab Emirates'
p1884
aS'Microwave_Oven:Macedonia'
p1885
aS'Microwave_Oven:Austria'
p1886
aS'Microwave_Oven:Hong Kong, China'
p1887
aS'Microwave_Oven:Switzerland'
p1888
aS'Microwave_Oven:South Korea'
p1889
aS'Microwave_Oven:Spain'
p1890
aS'Microwave_Oven:Bulgaria'
p1891
as.